
Swiatlomierz.elf:     file format elf32-avr

Sections:
Idx Name          Size      VMA       LMA       File off  Algn
  0 .data         00000000  00800100  00800100  0000361f  2**0
                  ALLOC, LOAD, DATA
  1 .text         00000102  00000000  00000000  00000114  2**1
                  CONTENTS, ALLOC, LOAD, READONLY, CODE
  2 .bss          00000004  00800100  00800100  0000361f  2**0
                  ALLOC
  3 .comment      0000002f  00000000  00000000  0000361f  2**0
                  CONTENTS, READONLY
  4 .stack.descriptors.hdr 0000017a  00000000  00000000  0000364e  2**0
                  CONTENTS, READONLY
  5 .debug_aranges 000001b8  00000000  00000000  000037c8  2**0
                  CONTENTS, READONLY, DEBUGGING
  6 .debug_info   00003634  00000000  00000000  00003980  2**0
                  CONTENTS, READONLY, DEBUGGING
  7 .debug_abbrev 00000d83  00000000  00000000  00006fb4  2**0
                  CONTENTS, READONLY, DEBUGGING
  8 .debug_line   00001535  00000000  00000000  00007d37  2**0
                  CONTENTS, READONLY, DEBUGGING
  9 .debug_frame  0000040c  00000000  00000000  0000926c  2**2
                  CONTENTS, READONLY, DEBUGGING
 10 .debug_str    000002b9  00000000  00000000  00009678  2**0
                  CONTENTS, READONLY, DEBUGGING
 11 .debug_loc    00001918  00000000  00000000  00009931  2**0
                  CONTENTS, READONLY, DEBUGGING
 12 .debug_ranges 000001c8  00000000  00000000  0000b249  2**0
                  CONTENTS, READONLY, DEBUGGING
 13 .text         00000004  000034de  000034de  000035f2  2**1
                  CONTENTS, ALLOC, LOAD, READONLY, CODE
 14 .note.gnu.avr.deviceinfo 00000040  00000000  00000000  0000b414  2**2
                  CONTENTS, READONLY, DEBUGGING
 15 .text.ReadLight 000000ac  00002762  00002762  00002876  2**1
                  CONTENTS, ALLOC, LOAD, READONLY, CODE
 16 .progmemx.data.special_char 00000018  00000474  00000474  00000588  2**0
                  CONTENTS, ALLOC, LOAD, READONLY, PROGMEMX
 17 .progmemx.data.ssd1306oled_font 0000027c  00000102  00000102  00000216  2**0
                  CONTENTS, ALLOC, LOAD, READONLY, PROGMEMX
 18 .text.i2c_init 00000012  000033da  000033da  000034ee  2**1
                  CONTENTS, ALLOC, LOAD, READONLY, CODE
 19 .text.i2c_start 0000005a  00002e62  00002e62  00002f76  2**1
                  CONTENTS, ALLOC, LOAD, READONLY, CODE
 20 .text.i2c_stop 00000008  000034a6  000034a6  000035ba  2**1
                  CONTENTS, ALLOC, LOAD, READONLY, CODE
 21 .text.i2c_byte 0000002e  000031e6  000031e6  000032fa  2**1
                  CONTENTS, ALLOC, LOAD, READONLY, CODE
 22 .text.lcd_command 0000003c  0000305c  0000305c  00003170  2**1
                  CONTENTS, ALLOC, LOAD, READONLY, CODE
 23 .text.lcd_data 00000048  00002f06  00002f06  0000301a  2**1
                  CONTENTS, ALLOC, LOAD, READONLY, CODE
 24 .text.lcd_goto_xpix_y 00000068  00002cd6  00002cd6  00002dea  2**1
                  CONTENTS, ALLOC, LOAD, READONLY, CODE
 25 .text.lcd_gotoxy 00000010  000033fe  000033fe  00003512  2**1
                  CONTENTS, ALLOC, LOAD, READONLY, CODE
 26 .text.lcd_home 0000000a  00003488  00003488  0000359c  2**1
                  CONTENTS, ALLOC, LOAD, READONLY, CODE
 27 .text.lcd_clrscr 0000005e  00002da6  00002da6  00002eba  2**1
                  CONTENTS, ALLOC, LOAD, READONLY, CODE
 28 .text.lcd_init 0000006a  00002c02  00002c02  00002d16  2**1
                  CONTENTS, ALLOC, LOAD, READONLY, CODE
 29 .text.lcd_putc 000003a0  000017ca  000017ca  000018de  2**1
                  CONTENTS, ALLOC, LOAD, READONLY, CODE
 30 .text.lcd_puts 0000002c  00003214  00003214  00003328  2**1
                  CONTENTS, ALLOC, LOAD, READONLY, CODE
 31 .progmemx.data.init_sequence 0000001b  00000459  00000459  0000056d  2**0
                  CONTENTS, ALLOC, LOAD, READONLY, PROGMEMX
 32 .data.charMode 00000001  00800126  0000350a  0000361e  2**0
                  CONTENTS, ALLOC, LOAD, DATA
 33 .bss.cursorPosition 00000002  00800122  00800122  0000361f  2**0
                  ALLOC
 34 .text.tw_start 00000038  00003110  00003110  00003224  2**1
                  CONTENTS, ALLOC, LOAD, READONLY, CODE
 35 .text.tw_stop 00000008  000034ae  000034ae  000035c2  2**1
                  CONTENTS, ALLOC, LOAD, READONLY, CODE
 36 .text.tw_write_sla 0000003c  00003098  00003098  000031ac  2**1
                  CONTENTS, ALLOC, LOAD, READONLY, CODE
 37 .text.tw_write 0000002c  00003240  00003240  00003354  2**1
                  CONTENTS, ALLOC, LOAD, READONLY, CODE
 38 .text.tw_read 0000004a  00002ebc  00002ebc  00002fd0  2**1
                  CONTENTS, ALLOC, LOAD, READONLY, CODE
 39 .text.tw_init 00000042  00002fda  00002fda  000030ee  2**1
                  CONTENTS, ALLOC, LOAD, READONLY, CODE
 40 .text.tw_master_transmit 0000006a  00002c6c  00002c6c  00002d80  2**1
                  CONTENTS, ALLOC, LOAD, READONLY, CODE
 41 .text.tw_master_receive 0000007e  00002b0a  00002b0a  00002c1e  2**1
                  CONTENTS, ALLOC, LOAD, READONLY, CODE
 42 .text.absolute 0000000c  00003464  00003464  00003578  2**1
                  CONTENTS, ALLOC, LOAD, READONLY, CODE
 43 .progmemx.data 000000db  0000037e  0000037e  00000492  2**0
                  CONTENTS, ALLOC, LOAD, READONLY, PROGMEMX
 44 .text.DislpayInterface 000000f2  00002172  00002172  00002286  2**1
                  CONTENTS, ALLOC, LOAD, READONLY, CODE
 45 .text.displayA 000000f2  00002264  00002264  00002378  2**1
                  CONTENTS, ALLOC, LOAD, READONLY, CODE
 46 .text.displayT 0000011a  00001f4a  00001f4a  0000205e  2**1
                  CONTENTS, ALLOC, LOAD, READONLY, CODE
 47 .text.displayISO 00000098  00002950  00002950  00002a64  2**1
                  CONTENTS, ALLOC, LOAD, READONLY, CODE
 48 .text.ReadEncoder 000000b4  000026ae  000026ae  000027c2  2**1
                  CONTENTS, ALLOC, LOAD, READONLY, CODE
 49 .text.Read4StepEncoder 00000016  000033ae  000033ae  000034c2  2**1
                  CONTENTS, ALLOC, LOAD, READONLY, CODE
 50 .rodata       0000001e  00800104  000034ec  00003600  2**0
                  CONTENTS, ALLOC, LOAD, DATA
 51 .text.main    00000436  00001394  00001394  000014a8  2**1
                  CONTENTS, ALLOC, LOAD, READONLY, CODE
 52 .bss.last.2460 00000001  00800127  00800127  0000361f  2**0
                  ALLOC
 53 .bss.counters.2462 00000002  00800124  00800124  0000361f  2**0
                  ALLOC
 54 .bss.laststate.2461 00000001  00800128  00800128  0000361f  2**0
                  ALLOC
 55 .text         0000000e  0000341e  0000341e  00003532  2**1
                  CONTENTS, ALLOC, LOAD, READONLY, CODE
 56 .text         000000ce  000025e0  000025e0  000026f4  2**1
                  CONTENTS, ALLOC, LOAD, READONLY, CODE
 57 .text         0000000a  00003492  00003492  000035a6  2**1
                  CONTENTS, ALLOC, LOAD, READONLY, CODE
 58 .text         00000008  000034b6  000034b6  000035ca  2**1
                  CONTENTS, ALLOC, LOAD, READONLY, CODE
 59 .text         000000de  00002356  00002356  0000246a  2**1
                  CONTENTS, ALLOC, LOAD, READONLY, CODE
 60 .text         0000000e  0000342c  0000342c  00003540  2**1
                  CONTENTS, ALLOC, LOAD, READONLY, CODE
 61 .text         0000005e  00002e04  00002e04  00002f18  2**1
                  CONTENTS, ALLOC, LOAD, READONLY, CODE
 62 .text         0000007a  00002b88  00002b88  00002c9c  2**1
                  CONTENTS, ALLOC, LOAD, READONLY, CODE
 63 .text         00000048  00002f4e  00002f4e  00003062  2**1
                  CONTENTS, ALLOC, LOAD, READONLY, CODE
 64 .text         0000000c  00003470  00003470  00003584  2**1
                  CONTENTS, ALLOC, LOAD, READONLY, CODE
 65 .text         00000006  000034c6  000034c6  000035da  2**1
                  CONTENTS, ALLOC, LOAD, READONLY, CODE
 66 .text         0000000e  0000343a  0000343a  0000354e  2**1
                  CONTENTS, ALLOC, LOAD, READONLY, CODE
 67 .text         0000000e  00003448  00003448  0000355c  2**1
                  CONTENTS, ALLOC, LOAD, READONLY, CODE
 68 .text         00000022  0000330e  0000330e  00003422  2**1
                  CONTENTS, ALLOC, LOAD, READONLY, CODE
 69 .text         00000044  00002f96  00002f96  000030aa  2**1
                  CONTENTS, ALLOC, LOAD, READONLY, CODE
 70 .text         0000000e  00003456  00003456  0000356a  2**1
                  CONTENTS, ALLOC, LOAD, READONLY, CODE
 71 .text         0000000a  0000349c  0000349c  000035b0  2**1
                  CONTENTS, ALLOC, LOAD, READONLY, CODE
 72 .text.libgcc  0000000c  0000347c  0000347c  00003590  2**1
                  CONTENTS, ALLOC, LOAD, READONLY, CODE
 73 .text.__dummy_fini 00000002  000034e6  000034e6  000035fa  2**1
                  CONTENTS, ALLOC, LOAD, READONLY, CODE
 74 .text.__dummy_funcs_on_exit 00000002  000034e8  000034e8  000035fc  2**1
                  CONTENTS, ALLOC, LOAD, READONLY, CODE
 75 .text.__dummy_simulator_exit 00000002  000034ea  000034ea  000035fe  2**1
                  CONTENTS, ALLOC, LOAD, READONLY, CODE
 76 .text.exit    00000016  000033c4  000033c4  000034d8  2**1
                  CONTENTS, ALLOC, LOAD, READONLY, CODE
 77 .text.__wrap_sprintf 00000026  000032e8  000032e8  000033fc  2**1
                  CONTENTS, ALLOC, LOAD, READONLY, CODE
 78 .progmemx.data 00000010  000004a2  000004a2  000005b6  2**0
                  CONTENTS, ALLOC, LOAD, READONLY, PROGMEMX
 79 .text.__fmt_fp 000006ba  00000cda  00000cda  00000dee  2**1
                  CONTENTS, ALLOC, LOAD, READONLY, CODE
 80 .text.__out   00000068  00002d3e  00002d3e  00002e52  2**1
                  CONTENTS, ALLOC, LOAD, READONLY, CODE
 81 .text.__pad   0000010e  00002064  00002064  00002178  2**1
                  CONTENTS, ALLOC, LOAD, READONLY, CODE
 82 .text.__dummy_fmt3 00000006  000034cc  000034cc  000035e0  2**1
                  CONTENTS, ALLOC, LOAD, READONLY, CODE
 83 .text.__dummy_fmt4 00000006  000034d2  000034d2  000035e6  2**1
                  CONTENTS, ALLOC, LOAD, READONLY, CODE
 84 .text.__dummy_fmts 00000006  000034d8  000034d8  000035ec  2**1
                  CONTENTS, ALLOC, LOAD, READONLY, CODE
 85 .text.__fmt_state 0000009e  000028b2  000028b2  000029c6  2**1
                  CONTENTS, ALLOC, LOAD, READONLY, CODE
 86 .progmemx.data 00000006  000004b2  000004b2  000005c6  2**0
                  CONTENTS, ALLOC, LOAD, READONLY, PROGMEMX
 87 .text.__printf_core 00000822  000004b8  000004b8  000005cc  2**1
                  CONTENTS, ALLOC, LOAD, READONLY, CODE
 88 .progmemx.data.state_table 00000016  0000048c  0000048c  000005a0  2**0
                  CONTENTS, ALLOC, LOAD, READONLY, PROGMEMX
 89 .text.fputc   00000092  000029e8  000029e8  00002afc  2**1
                  CONTENTS, ALLOC, LOAD, READONLY, CODE
 90 .text.__pop_float 00000040  0000301c  0000301c  00003130  2**1
                  CONTENTS, ALLOC, LOAD, READONLY, CODE
 91 .text.__pop_int 00000172  00001b6a  00001b6a  00001c7e  2**1
                  CONTENTS, ALLOC, LOAD, READONLY, CODE
 92 .text.__pop_ptr 000000d8  00002434  00002434  00002548  2**1
                  CONTENTS, ALLOC, LOAD, READONLY, CODE
 93 .text.atoi    00000090  00002a7a  00002a7a  00002b8e  2**1
                  CONTENTS, ALLOC, LOAD, READONLY, CODE
 94 .text.memset  00000012  000033ec  000033ec  00003500  2**1
                  CONTENTS, ALLOC, LOAD, READONLY, CODE
 95 .text.strcpy  0000001c  00003330  00003330  00003444  2**1
                  CONTENTS, ALLOC, LOAD, READONLY, CODE
 96 .text.strlen  0000002c  0000326c  0000326c  00003380  2**1
                  CONTENTS, ALLOC, LOAD, READONLY, CODE
 97 .text.tolower 00000010  0000340e  0000340e  00003522  2**1
                  CONTENTS, ALLOC, LOAD, READONLY, CODE
 98 .text._Exit   00000004  000034e2  000034e2  000035f6  2**1
                  CONTENTS, ALLOC, LOAD, READONLY, CODE
 99 .text.__vsprintf 00000018  00003366  00003366  0000347a  2**1
                  CONTENTS, ALLOC, LOAD, READONLY, CODE
100 .text.__vsnprintf 000000a4  0000280e  0000280e  00002922  2**1
                  CONTENTS, ALLOC, LOAD, READONLY, CODE
101 .text.__vfprintf 00000030  000031b6  000031b6  000032ca  2**1
                  CONTENTS, ALLOC, LOAD, READONLY, CODE
102 .text.libgcc.div 00000028  00003298  00003298  000033ac  2**1
                  CONTENTS, ALLOC, LOAD, READONLY, CODE
103 .text.libgcc.prologue 00000038  00003148  00003148  0000325c  2**1
                  CONTENTS, ALLOC, LOAD, READONLY, CODE
104 .text.libgcc.prologue 00000036  00003180  00003180  00003294  2**1
                  CONTENTS, ALLOC, LOAD, READONLY, CODE
105 .text.libgcc  0000001a  0000334c  0000334c  00003460  2**1
                  CONTENTS, ALLOC, LOAD, READONLY, CODE
106 .text.libgcc  00000018  0000337e  0000337e  00003492  2**1
                  CONTENTS, ALLOC, LOAD, READONLY, CODE
107 .text.libgcc.div 00000028  000032c0  000032c0  000033d4  2**1
                  CONTENTS, ALLOC, LOAD, READONLY, CODE
108 .text         00000008  000034be  000034be  000035d2  2**1
                  CONTENTS, ALLOC, LOAD, READONLY, CODE
109 .text         000000d4  0000250c  0000250c  00002620  2**1
                  CONTENTS, ALLOC, LOAD, READONLY, CODE
110 .text.floorf  00000132  00001e18  00001e18  00001f2c  2**1
                  CONTENTS, ALLOC, LOAD, READONLY, CODE
111 .text.fmaf    0000013c  00001cdc  00001cdc  00001df0  2**1
                  CONTENTS, ALLOC, LOAD, READONLY, CODE
112 .text.libgcc.builtins 0000003c  000030d4  000030d4  000031e8  2**1
                  CONTENTS, ALLOC, LOAD, READONLY, CODE
113 .text.libgcc  00000018  00003396  00003396  000034aa  2**1
                  CONTENTS, ALLOC, LOAD, READONLY, CODE

Disassembly of section .text:

00000000 <__vectors>:
   0:	0c 94 57 00 	jmp	0xae	; 0xae <__ctors_end>
   4:	0c 94 6f 1a 	jmp	0x34de	; 0x34de <__bad_interrupt>
   8:	0c 94 6f 1a 	jmp	0x34de	; 0x34de <__bad_interrupt>
   c:	0c 94 6f 1a 	jmp	0x34de	; 0x34de <__bad_interrupt>
  10:	0c 94 6f 1a 	jmp	0x34de	; 0x34de <__bad_interrupt>
  14:	0c 94 6f 1a 	jmp	0x34de	; 0x34de <__bad_interrupt>
  18:	0c 94 6f 1a 	jmp	0x34de	; 0x34de <__bad_interrupt>
  1c:	0c 94 6f 1a 	jmp	0x34de	; 0x34de <__bad_interrupt>
  20:	0c 94 6f 1a 	jmp	0x34de	; 0x34de <__bad_interrupt>
  24:	0c 94 6f 1a 	jmp	0x34de	; 0x34de <__bad_interrupt>
  28:	0c 94 6f 1a 	jmp	0x34de	; 0x34de <__bad_interrupt>
  2c:	0c 94 6f 1a 	jmp	0x34de	; 0x34de <__bad_interrupt>
  30:	0c 94 6f 1a 	jmp	0x34de	; 0x34de <__bad_interrupt>
  34:	0c 94 6f 1a 	jmp	0x34de	; 0x34de <__bad_interrupt>
  38:	0c 94 6f 1a 	jmp	0x34de	; 0x34de <__bad_interrupt>
  3c:	0c 94 6f 1a 	jmp	0x34de	; 0x34de <__bad_interrupt>
  40:	0c 94 6f 1a 	jmp	0x34de	; 0x34de <__bad_interrupt>
  44:	0c 94 6f 1a 	jmp	0x34de	; 0x34de <__bad_interrupt>
  48:	0c 94 6f 1a 	jmp	0x34de	; 0x34de <__bad_interrupt>
  4c:	0c 94 6f 1a 	jmp	0x34de	; 0x34de <__bad_interrupt>
  50:	0c 94 6f 1a 	jmp	0x34de	; 0x34de <__bad_interrupt>
  54:	0c 94 6f 1a 	jmp	0x34de	; 0x34de <__bad_interrupt>
  58:	0c 94 6f 1a 	jmp	0x34de	; 0x34de <__bad_interrupt>
  5c:	0c 94 6f 1a 	jmp	0x34de	; 0x34de <__bad_interrupt>
  60:	0c 94 6f 1a 	jmp	0x34de	; 0x34de <__bad_interrupt>
  64:	0c 94 6f 1a 	jmp	0x34de	; 0x34de <__bad_interrupt>
  68:	3b 11       	cpse	r19, r11
  6a:	45 11       	cpse	r20, r5
  6c:	4f 11       	cpse	r20, r15
  6e:	59 11       	cpse	r21, r9
  70:	63 11       	cpse	r22, r3
  72:	6d 11       	cpse	r22, r13
  74:	77 11       	cpse	r23, r7
  76:	81 11       	cpse	r24, r1
  78:	8b 11       	cpse	r24, r11
  7a:	ae 0f       	add	r26, r30
  7c:	b8 0f       	add	r27, r24
  7e:	c2 0f       	add	r28, r18
  80:	cc 0f       	add	r28, r28
  82:	d6 0f       	add	r29, r22
  84:	e0 0f       	add	r30, r16
  86:	ea 0f       	add	r30, r26
  88:	f4 0f       	add	r31, r20
  8a:	fe 0f       	add	r31, r30
  8c:	08 10       	cpse	r0, r8
  8e:	12 10       	cpse	r1, r2

00000090 <.dinit>:
  90:	01 00       	.word	0x0001	; ????
  92:	01 04       	cpc	r0, r1
  94:	80 01       	movw	r16, r0
  96:	04 01       	movw	r0, r8
  98:	22 00       	.word	0x0022	; ????
  9a:	34 ec       	ldi	r19, 0xC4	; 196
  9c:	01 22       	and	r0, r17
  9e:	01 26       	eor	r0, r17
  a0:	80 01       	movw	r16, r0
  a2:	26 01       	movw	r4, r12
  a4:	27 00       	.word	0x0027	; ????
  a6:	35 0a       	sbc	r3, r21
  a8:	01 27       	eor	r16, r17
  aa:	01 29       	or	r16, r1
  ac:	80 00       	.word	0x0080	; ????

000000ae <__ctors_end>:
  ae:	11 24       	eor	r1, r1
  b0:	1f be       	out	0x3f, r1	; 63
  b2:	cf ef       	ldi	r28, 0xFF	; 255
  b4:	d8 e0       	ldi	r29, 0x08	; 8
  b6:	de bf       	out	0x3e, r29	; 62
  b8:	cd bf       	out	0x3d, r28	; 61

000000ba <__do_copy_data>:
  ba:	e0 e9       	ldi	r30, 0x90	; 144
  bc:	f0 e0       	ldi	r31, 0x00	; 0
  be:	40 e0       	ldi	r20, 0x00	; 0
  c0:	17 c0       	rjmp	.+46     	; 0xf0 <__do_clear_bss+0x8>
  c2:	b5 91       	lpm	r27, Z+
  c4:	a5 91       	lpm	r26, Z+
  c6:	35 91       	lpm	r19, Z+
  c8:	25 91       	lpm	r18, Z+
  ca:	05 91       	lpm	r16, Z+
  cc:	07 fd       	sbrc	r16, 7
  ce:	0c c0       	rjmp	.+24     	; 0xe8 <__do_clear_bss>
  d0:	95 91       	lpm	r25, Z+
  d2:	85 91       	lpm	r24, Z+
  d4:	ef 01       	movw	r28, r30
  d6:	f9 2f       	mov	r31, r25
  d8:	e8 2f       	mov	r30, r24
  da:	05 90       	lpm	r0, Z+
  dc:	0d 92       	st	X+, r0
  de:	a2 17       	cp	r26, r18
  e0:	b3 07       	cpc	r27, r19
  e2:	d9 f7       	brne	.-10     	; 0xda <__do_copy_data+0x20>
  e4:	fe 01       	movw	r30, r28
  e6:	04 c0       	rjmp	.+8      	; 0xf0 <__do_clear_bss+0x8>

000000e8 <__do_clear_bss>:
  e8:	1d 92       	st	X+, r1
  ea:	a2 17       	cp	r26, r18
  ec:	b3 07       	cpc	r27, r19
  ee:	e1 f7       	brne	.-8      	; 0xe8 <__do_clear_bss>
  f0:	ed 3a       	cpi	r30, 0xAD	; 173
  f2:	f4 07       	cpc	r31, r20
  f4:	31 f7       	brne	.-52     	; 0xc2 <__do_copy_data+0x8>
  f6:	0e 94 ca 09 	call	0x1394	; 0x1394 <main>
  fa:	0c 94 e2 19 	jmp	0x33c4	; 0x33c4 <exit>

000000fe <_exit>:
  fe:	f8 94       	cli

00000100 <__stop_program>:
 100:	ff cf       	rjmp	.-2      	; 0x100 <__stop_program>

Disassembly of section .text:

000034de <__bad_interrupt>:
    34de:	0c 94 00 00 	jmp	0	; 0x0 <__TEXT_REGION_ORIGIN__>

Disassembly of section .text.ReadLight:

00002762 <ReadLight>:

#include "BH1750.h"

float ReadLight(){
    2762:	cf 93       	push	r28
    2764:	df 93       	push	r29
    2766:	00 d0       	rcall	.+0      	; 0x2768 <ReadLight+0x6>
    2768:	0f 92       	push	r0
    276a:	cd b7       	in	r28, 0x3d	; 61
    276c:	de b7       	in	r29, 0x3e	; 62

	uint8_t datain[1]={0x20};
    276e:	80 e2       	ldi	r24, 0x20	; 32
    2770:	89 83       	std	Y+1, r24	; 0x01
	uint8_t tab[2] = {10,10};
    2772:	8a e0       	ldi	r24, 0x0A	; 10
    2774:	8a 83       	std	Y+2, r24	; 0x02
    2776:	8b 83       	std	Y+3, r24	; 0x03
	tw_init(TW_FREQ_400K,true);
    2778:	61 e0       	ldi	r22, 0x01	; 1
    277a:	82 e0       	ldi	r24, 0x02	; 2
    277c:	0e 94 ed 17 	call	0x2fda	; 0x2fda <tw_init>
	if(tw_master_transmit(0x23, datain,1,false) != 0)
    2780:	20 e0       	ldi	r18, 0x00	; 0
    2782:	41 e0       	ldi	r20, 0x01	; 1
    2784:	be 01       	movw	r22, r28
    2786:	6f 5f       	subi	r22, 0xFF	; 255
    2788:	7f 4f       	sbci	r23, 0xFF	; 255
    278a:	83 e2       	ldi	r24, 0x23	; 35
    278c:	0e 94 36 16 	call	0x2c6c	; 0x2c6c <tw_master_transmit>
    2790:	89 2b       	or	r24, r25
    2792:	51 f5       	brne	.+84     	; 0x27e8 <ReadLight+0x86>
	#else
		//round up by default
		__ticks_dc = (uint32_t)(ceil(fabs(__tmp)));
	#endif

	__builtin_avr_delay_cycles(__ticks_dc);
    2794:	2f e7       	ldi	r18, 0x7F	; 127
    2796:	89 ea       	ldi	r24, 0xA9	; 169
    2798:	93 e0       	ldi	r25, 0x03	; 3
    279a:	21 50       	subi	r18, 0x01	; 1
    279c:	80 40       	sbci	r24, 0x00	; 0
    279e:	90 40       	sbci	r25, 0x00	; 0
    27a0:	e1 f7       	brne	.-8      	; 0x279a <ReadLight+0x38>
    27a2:	00 c0       	rjmp	.+0      	; 0x27a4 <ReadLight+0x42>
    27a4:	00 00       	nop
	{
		return 123.3;
	}
	_delay_ms(150);
	if(tw_master_receive(0x23,tab,2)!=0)
    27a6:	42 e0       	ldi	r20, 0x02	; 2
    27a8:	be 01       	movw	r22, r28
    27aa:	6e 5f       	subi	r22, 0xFE	; 254
    27ac:	7f 4f       	sbci	r23, 0xFF	; 255
    27ae:	83 e2       	ldi	r24, 0x23	; 35
    27b0:	0e 94 85 15 	call	0x2b0a	; 0x2b0a <tw_master_receive>
    27b4:	89 2b       	or	r24, r25
    27b6:	e9 f4       	brne	.+58     	; 0x27f2 <ReadLight+0x90>
	{
		return 321.1;
	}
	float lux = (tab[0]*256+tab[1])/1.2;
    27b8:	6a 81       	ldd	r22, Y+2	; 0x02
    27ba:	70 e0       	ldi	r23, 0x00	; 0
    27bc:	76 2f       	mov	r23, r22
    27be:	66 27       	eor	r22, r22
    27c0:	8b 81       	ldd	r24, Y+3	; 0x03
    27c2:	68 0f       	add	r22, r24
    27c4:	71 1d       	adc	r23, r1
    27c6:	07 2e       	mov	r0, r23
    27c8:	00 0c       	add	r0, r0
    27ca:	88 0b       	sbc	r24, r24
    27cc:	99 0b       	sbc	r25, r25
    27ce:	0e 94 c6 15 	call	0x2b8c	; 0x2b8c <__floatsisf>
    27d2:	2a e9       	ldi	r18, 0x9A	; 154
    27d4:	39 e9       	ldi	r19, 0x99	; 153
    27d6:	49 e9       	ldi	r20, 0x99	; 153
    27d8:	5f e3       	ldi	r21, 0x3F	; 63
    27da:	0e 94 5b 1a 	call	0x34b6	; 0x34b6 <__divsf3>
	return lux;
    27de:	56 2f       	mov	r21, r22
    27e0:	47 2f       	mov	r20, r23
    27e2:	38 2f       	mov	r19, r24
    27e4:	29 2f       	mov	r18, r25
    27e6:	09 c0       	rjmp	.+18     	; 0x27fa <ReadLight+0x98>
	uint8_t datain[1]={0x20};
	uint8_t tab[2] = {10,10};
	tw_init(TW_FREQ_400K,true);
	if(tw_master_transmit(0x23, datain,1,false) != 0)
	{
		return 123.3;
    27e8:	5a e9       	ldi	r21, 0x9A	; 154
    27ea:	49 e9       	ldi	r20, 0x99	; 153
    27ec:	36 ef       	ldi	r19, 0xF6	; 246
    27ee:	22 e4       	ldi	r18, 0x42	; 66
    27f0:	04 c0       	rjmp	.+8      	; 0x27fa <ReadLight+0x98>
	}
	_delay_ms(150);
	if(tw_master_receive(0x23,tab,2)!=0)
	{
		return 321.1;
    27f2:	5d ec       	ldi	r21, 0xCD	; 205
    27f4:	4c e8       	ldi	r20, 0x8C	; 140
    27f6:	30 ea       	ldi	r19, 0xA0	; 160
    27f8:	23 e4       	ldi	r18, 0x43	; 67
	}
	float lux = (tab[0]*256+tab[1])/1.2;
	return lux;
    27fa:	65 2f       	mov	r22, r21
    27fc:	74 2f       	mov	r23, r20
    27fe:	83 2f       	mov	r24, r19
    2800:	92 2f       	mov	r25, r18
    2802:	0f 90       	pop	r0
    2804:	0f 90       	pop	r0
    2806:	0f 90       	pop	r0
    2808:	df 91       	pop	r29
    280a:	cf 91       	pop	r28
    280c:	08 95       	ret

Disassembly of section .text.i2c_init:

000033da <i2c_init>:
            break;
        case 64:
            TWSR = 0x3;
            break;
        default:
            TWSR = 0x00;
    33da:	10 92 b9 00 	sts	0x00B9, r1	; 0x8000b9 <__TEXT_REGION_LENGTH__+0x7f80b9>
            break;
    }
    TWBR = (uint8_t)SET_TWBR;
    33de:	80 e2       	ldi	r24, 0x20	; 32
    33e0:	80 93 b8 00 	sts	0x00B8, r24	; 0x8000b8 <__TEXT_REGION_LENGTH__+0x7f80b8>
    // enable
    TWCR = (1 << TWEN);
    33e4:	84 e0       	ldi	r24, 0x04	; 4
    33e6:	80 93 bc 00 	sts	0x00BC, r24	; 0x8000bc <__TEXT_REGION_LENGTH__+0x7f80bc>
    33ea:	08 95       	ret

Disassembly of section .text.i2c_start:

00002e62 <i2c_start>:
 
 Return Value: none
 **********************************************/
void i2c_start(uint8_t i2c_addr){
    // i2c start
    TWCR = (1 << TWINT)|(1 << TWSTA)|(1 << TWEN);
    2e62:	94 ea       	ldi	r25, 0xA4	; 164
    2e64:	90 93 bc 00 	sts	0x00BC, r25	; 0x8000bc <__TEXT_REGION_LENGTH__+0x7f80bc>
	uint16_t timeout = F_CPU/F_I2C*2.0;
    2e68:	20 ea       	ldi	r18, 0xA0	; 160
    2e6a:	30 e0       	ldi	r19, 0x00	; 0
    while((TWCR & (1 << TWINT)) == 0 &&
    2e6c:	09 c0       	rjmp	.+18     	; 0x2e80 <i2c_start+0x1e>
		timeout !=0){
		timeout--;
    2e6e:	21 50       	subi	r18, 0x01	; 1
    2e70:	31 09       	sbc	r19, r1
		if(timeout == 0){
    2e72:	31 f4       	brne	.+12     	; 0x2e80 <i2c_start+0x1e>
			I2C_ErrorCode |= (1 << I2C_START);
    2e74:	80 91 00 01 	lds	r24, 0x0100	; 0x800100 <__DATA_REGION_ORIGIN__>
    2e78:	81 60       	ori	r24, 0x01	; 1
    2e7a:	80 93 00 01 	sts	0x0100, r24	; 0x800100 <__DATA_REGION_ORIGIN__>
			return;
    2e7e:	08 95       	ret
 **********************************************/
void i2c_start(uint8_t i2c_addr){
    // i2c start
    TWCR = (1 << TWINT)|(1 << TWSTA)|(1 << TWEN);
	uint16_t timeout = F_CPU/F_I2C*2.0;
    while((TWCR & (1 << TWINT)) == 0 &&
    2e80:	90 91 bc 00 	lds	r25, 0x00BC	; 0x8000bc <__TEXT_REGION_LENGTH__+0x7f80bc>
    2e84:	99 23       	and	r25, r25
    2e86:	1c f0       	brlt	.+6      	; 0x2e8e <i2c_start+0x2c>
    2e88:	21 15       	cp	r18, r1
    2e8a:	31 05       	cpc	r19, r1
    2e8c:	81 f7       	brne	.-32     	; 0x2e6e <i2c_start+0xc>
			I2C_ErrorCode |= (1 << I2C_START);
			return;
		}
	};
    // send adress
    TWDR = i2c_addr;
    2e8e:	80 93 bb 00 	sts	0x00BB, r24	; 0x8000bb <__TEXT_REGION_LENGTH__+0x7f80bb>
    TWCR = (1 << TWINT)|( 1 << TWEN);
    2e92:	84 e8       	ldi	r24, 0x84	; 132
    2e94:	80 93 bc 00 	sts	0x00BC, r24	; 0x8000bc <__TEXT_REGION_LENGTH__+0x7f80bc>
    timeout = F_CPU/F_I2C*2.0;
    2e98:	80 ea       	ldi	r24, 0xA0	; 160
    2e9a:	90 e0       	ldi	r25, 0x00	; 0
    while((TWCR & (1 << TWINT)) == 0 &&
    2e9c:	08 c0       	rjmp	.+16     	; 0x2eae <i2c_start+0x4c>
		  timeout !=0){
		timeout--;
    2e9e:	01 97       	sbiw	r24, 0x01	; 1
		if(timeout == 0){
    2ea0:	31 f4       	brne	.+12     	; 0x2eae <i2c_start+0x4c>
			I2C_ErrorCode |= (1 << I2C_SENDADRESS);
    2ea2:	80 91 00 01 	lds	r24, 0x0100	; 0x800100 <__DATA_REGION_ORIGIN__>
    2ea6:	82 60       	ori	r24, 0x02	; 2
    2ea8:	80 93 00 01 	sts	0x0100, r24	; 0x800100 <__DATA_REGION_ORIGIN__>
			return;
    2eac:	08 95       	ret
	};
    // send adress
    TWDR = i2c_addr;
    TWCR = (1 << TWINT)|( 1 << TWEN);
    timeout = F_CPU/F_I2C*2.0;
    while((TWCR & (1 << TWINT)) == 0 &&
    2eae:	20 91 bc 00 	lds	r18, 0x00BC	; 0x8000bc <__TEXT_REGION_LENGTH__+0x7f80bc>
    2eb2:	22 23       	and	r18, r18
    2eb4:	14 f0       	brlt	.+4      	; 0x2eba <i2c_start+0x58>
    2eb6:	00 97       	sbiw	r24, 0x00	; 0
    2eb8:	91 f7       	brne	.-28     	; 0x2e9e <i2c_start+0x3c>
    2eba:	08 95       	ret

Disassembly of section .text.i2c_stop:

000034a6 <i2c_stop>:
 
 Return Value: none
 **********************************************/
void i2c_stop(void){
    // i2c stop
    TWCR = (1 << TWINT)|(1 << TWSTO)|(1 << TWEN);
    34a6:	84 e9       	ldi	r24, 0x94	; 148
    34a8:	80 93 bc 00 	sts	0x00BC, r24	; 0x8000bc <__TEXT_REGION_LENGTH__+0x7f80bc>
    34ac:	08 95       	ret

Disassembly of section .text.i2c_byte:

000031e6 <i2c_byte>:
 - uint8_t byte: Byte to send to reciever
 
 Return Value: none
 **********************************************/
void i2c_byte(uint8_t byte){
    TWDR = byte;
    31e6:	80 93 bb 00 	sts	0x00BB, r24	; 0x8000bb <__TEXT_REGION_LENGTH__+0x7f80bb>
    TWCR = (1 << TWINT)|( 1 << TWEN);
    31ea:	84 e8       	ldi	r24, 0x84	; 132
    31ec:	80 93 bc 00 	sts	0x00BC, r24	; 0x8000bc <__TEXT_REGION_LENGTH__+0x7f80bc>
    uint16_t timeout = F_CPU/F_I2C*2.0;
    31f0:	80 ea       	ldi	r24, 0xA0	; 160
    31f2:	90 e0       	ldi	r25, 0x00	; 0
    while((TWCR & (1 << TWINT)) == 0 &&
    31f4:	08 c0       	rjmp	.+16     	; 0x3206 <i2c_byte+0x20>
		  timeout !=0){
		timeout--;
    31f6:	01 97       	sbiw	r24, 0x01	; 1
		if(timeout == 0){
    31f8:	31 f4       	brne	.+12     	; 0x3206 <i2c_byte+0x20>
			I2C_ErrorCode |= (1 << I2C_BYTE);
    31fa:	80 91 00 01 	lds	r24, 0x0100	; 0x800100 <__DATA_REGION_ORIGIN__>
    31fe:	84 60       	ori	r24, 0x04	; 4
    3200:	80 93 00 01 	sts	0x0100, r24	; 0x800100 <__DATA_REGION_ORIGIN__>
			return;
    3204:	08 95       	ret
 **********************************************/
void i2c_byte(uint8_t byte){
    TWDR = byte;
    TWCR = (1 << TWINT)|( 1 << TWEN);
    uint16_t timeout = F_CPU/F_I2C*2.0;
    while((TWCR & (1 << TWINT)) == 0 &&
    3206:	20 91 bc 00 	lds	r18, 0x00BC	; 0x8000bc <__TEXT_REGION_LENGTH__+0x7f80bc>
    320a:	22 23       	and	r18, r18
    320c:	14 f0       	brlt	.+4      	; 0x3212 <i2c_byte+0x2c>
    320e:	00 97       	sbiw	r24, 0x00	; 0
    3210:	91 f7       	brne	.-28     	; 0x31f6 <i2c_byte+0x10>
    3212:	08 95       	ret

Disassembly of section .text.lcd_command:

0000305c <lcd_command>:
            break;
    }
    
}
void lcd_charMode(uint8_t mode){
    charMode = mode;
    305c:	0f 93       	push	r16
    305e:	1f 93       	push	r17
    3060:	cf 93       	push	r28
    3062:	df 93       	push	r29
    3064:	8c 01       	movw	r16, r24
    3066:	d6 2f       	mov	r29, r22
    3068:	88 e7       	ldi	r24, 0x78	; 120
    306a:	0e 94 31 17 	call	0x2e62	; 0x2e62 <i2c_start>
    306e:	80 e0       	ldi	r24, 0x00	; 0
    3070:	0e 94 f3 18 	call	0x31e6	; 0x31e6 <i2c_byte>
    3074:	c0 e0       	ldi	r28, 0x00	; 0
    3076:	07 c0       	rjmp	.+14     	; 0x3086 <lcd_command+0x2a>
    3078:	f8 01       	movw	r30, r16
    307a:	ec 0f       	add	r30, r28
    307c:	f1 1d       	adc	r31, r1
    307e:	80 81       	ld	r24, Z
    3080:	0e 94 f3 18 	call	0x31e6	; 0x31e6 <i2c_byte>
    3084:	cf 5f       	subi	r28, 0xFF	; 255
    3086:	cd 17       	cp	r28, r29
    3088:	b8 f3       	brcs	.-18     	; 0x3078 <lcd_command+0x1c>
    308a:	0e 94 53 1a 	call	0x34a6	; 0x34a6 <i2c_stop>
    308e:	df 91       	pop	r29
    3090:	cf 91       	pop	r28
    3092:	1f 91       	pop	r17
    3094:	0f 91       	pop	r16
    3096:	08 95       	ret

Disassembly of section .text.lcd_data:

00002f06 <lcd_data>:
    2f06:	ef 92       	push	r14
    2f08:	ff 92       	push	r15
    2f0a:	0f 93       	push	r16
    2f0c:	1f 93       	push	r17
    2f0e:	cf 93       	push	r28
    2f10:	df 93       	push	r29
    2f12:	7c 01       	movw	r14, r24
    2f14:	8b 01       	movw	r16, r22
    2f16:	88 e7       	ldi	r24, 0x78	; 120
    2f18:	0e 94 31 17 	call	0x2e62	; 0x2e62 <i2c_start>
    2f1c:	80 e4       	ldi	r24, 0x40	; 64
    2f1e:	0e 94 f3 18 	call	0x31e6	; 0x31e6 <i2c_byte>
    2f22:	c0 e0       	ldi	r28, 0x00	; 0
    2f24:	d0 e0       	ldi	r29, 0x00	; 0
    2f26:	07 c0       	rjmp	.+14     	; 0x2f36 <lcd_data+0x30>
    2f28:	f7 01       	movw	r30, r14
    2f2a:	ec 0f       	add	r30, r28
    2f2c:	fd 1f       	adc	r31, r29
    2f2e:	80 81       	ld	r24, Z
    2f30:	0e 94 f3 18 	call	0x31e6	; 0x31e6 <i2c_byte>
    2f34:	21 96       	adiw	r28, 0x01	; 1
    2f36:	c0 17       	cp	r28, r16
    2f38:	d1 07       	cpc	r29, r17
    2f3a:	b0 f3       	brcs	.-20     	; 0x2f28 <lcd_data+0x22>
    2f3c:	0e 94 53 1a 	call	0x34a6	; 0x34a6 <i2c_stop>
    2f40:	df 91       	pop	r29
    2f42:	cf 91       	pop	r28
    2f44:	1f 91       	pop	r17
    2f46:	0f 91       	pop	r16
    2f48:	ff 90       	pop	r15
    2f4a:	ef 90       	pop	r14
    2f4c:	08 95       	ret

Disassembly of section .text.lcd_goto_xpix_y:

00002cd6 <lcd_goto_xpix_y>:
    2cd6:	cf 93       	push	r28
    2cd8:	df 93       	push	r29
    2cda:	00 d0       	rcall	.+0      	; 0x2cdc <lcd_goto_xpix_y+0x6>
    2cdc:	00 d0       	rcall	.+0      	; 0x2cde <lcd_goto_xpix_y+0x8>
    2cde:	0f 92       	push	r0
    2ce0:	cd b7       	in	r28, 0x3d	; 61
    2ce2:	de b7       	in	r29, 0x3e	; 62
    2ce4:	81 38       	cpi	r24, 0x81	; 129
    2ce6:	18 f5       	brcc	.+70     	; 0x2d2e <lcd_goto_xpix_y+0x58>
    2ce8:	68 30       	cpi	r22, 0x08	; 8
    2cea:	08 f5       	brcc	.+66     	; 0x2d2e <lcd_goto_xpix_y+0x58>
    2cec:	e2 e2       	ldi	r30, 0x22	; 34
    2cee:	f1 e0       	ldi	r31, 0x01	; 1
    2cf0:	80 83       	st	Z, r24
    2cf2:	61 83       	std	Z+1, r22	; 0x01
    2cf4:	60 55       	subi	r22, 0x50	; 80
    2cf6:	69 83       	std	Y+1, r22	; 0x01
    2cf8:	91 e2       	ldi	r25, 0x21	; 33
    2cfa:	9a 83       	std	Y+2, r25	; 0x02
    2cfc:	92 e0       	ldi	r25, 0x02	; 2
    2cfe:	98 0f       	add	r25, r24
    2d00:	9f 70       	andi	r25, 0x0F	; 15
    2d02:	9b 83       	std	Y+3, r25	; 0x03
    2d04:	90 e0       	ldi	r25, 0x00	; 0
    2d06:	02 96       	adiw	r24, 0x02	; 2
    2d08:	80 7f       	andi	r24, 0xF0	; 240
    2d0a:	99 27       	eor	r25, r25
    2d0c:	95 95       	asr	r25
    2d0e:	87 95       	ror	r24
    2d10:	95 95       	asr	r25
    2d12:	87 95       	ror	r24
    2d14:	95 95       	asr	r25
    2d16:	87 95       	ror	r24
    2d18:	95 95       	asr	r25
    2d1a:	87 95       	ror	r24
    2d1c:	80 5f       	subi	r24, 0xF0	; 240
    2d1e:	8c 83       	std	Y+4, r24	; 0x04
    2d20:	8f e7       	ldi	r24, 0x7F	; 127
    2d22:	8d 83       	std	Y+5, r24	; 0x05
    2d24:	65 e0       	ldi	r22, 0x05	; 5
    2d26:	ce 01       	movw	r24, r28
    2d28:	01 96       	adiw	r24, 0x01	; 1
    2d2a:	0e 94 2e 18 	call	0x305c	; 0x305c <lcd_command>
    2d2e:	0f 90       	pop	r0
    2d30:	0f 90       	pop	r0
    2d32:	0f 90       	pop	r0
    2d34:	0f 90       	pop	r0
    2d36:	0f 90       	pop	r0
    2d38:	df 91       	pop	r29
    2d3a:	cf 91       	pop	r28
    2d3c:	08 95       	ret

Disassembly of section .text.lcd_gotoxy:

000033fe <lcd_gotoxy>:
    commandSequence[sizeof(init_sequence)]=(dispAttr);
    lcd_command(commandSequence, sizeof(commandSequence));
    lcd_clrscr();
}
void lcd_gotoxy(uint8_t x, uint8_t y){
    x = x * sizeof(FONT[0]);
    33fe:	98 2f       	mov	r25, r24
    3400:	99 0f       	add	r25, r25
    3402:	98 0f       	add	r25, r24
    3404:	89 2f       	mov	r24, r25
    3406:	88 0f       	add	r24, r24
    lcd_goto_xpix_y(x,y);
    3408:	0e 94 6b 16 	call	0x2cd6	; 0x2cd6 <lcd_goto_xpix_y>
    340c:	08 95       	ret

Disassembly of section .text.lcd_home:

00003488 <lcd_home>:
    }
#endif
    lcd_home();
}
void lcd_home(void){
    lcd_gotoxy(0, 0);
    3488:	60 e0       	ldi	r22, 0x00	; 0
    348a:	80 e0       	ldi	r24, 0x00	; 0
    348c:	0e 94 ff 19 	call	0x33fe	; 0x33fe <lcd_gotoxy>
    3490:	08 95       	ret

Disassembly of section .text.lcd_clrscr:

00002da6 <lcd_clrscr>:
            break;
    }
    
}
void lcd_charMode(uint8_t mode){
    charMode = mode;
    2da6:	1f 93       	push	r17
    2da8:	cf 93       	push	r28
    2daa:	df 93       	push	r29
    2dac:	cd b7       	in	r28, 0x3d	; 61
    2dae:	de b7       	in	r29, 0x3e	; 62
    2db0:	c0 58       	subi	r28, 0x80	; 128
    2db2:	d1 09       	sbc	r29, r1
    2db4:	0f b6       	in	r0, 0x3f	; 63
    2db6:	f8 94       	cli
    2db8:	de bf       	out	0x3e, r29	; 62
    2dba:	0f be       	out	0x3f, r0	; 63
    2dbc:	cd bf       	out	0x3d, r28	; 61
    2dbe:	fe 01       	movw	r30, r28
    2dc0:	31 96       	adiw	r30, 0x01	; 1
    2dc2:	80 e8       	ldi	r24, 0x80	; 128
    2dc4:	df 01       	movw	r26, r30
    2dc6:	1d 92       	st	X+, r1
    2dc8:	8a 95       	dec	r24
    2dca:	e9 f7       	brne	.-6      	; 0x2dc6 <lcd_clrscr+0x20>
    2dcc:	10 e0       	ldi	r17, 0x00	; 0
    2dce:	0b c0       	rjmp	.+22     	; 0x2de6 <lcd_clrscr+0x40>
    2dd0:	61 2f       	mov	r22, r17
    2dd2:	80 e0       	ldi	r24, 0x00	; 0
    2dd4:	0e 94 ff 19 	call	0x33fe	; 0x33fe <lcd_gotoxy>
    2dd8:	60 e8       	ldi	r22, 0x80	; 128
    2dda:	70 e0       	ldi	r23, 0x00	; 0
    2ddc:	ce 01       	movw	r24, r28
    2dde:	01 96       	adiw	r24, 0x01	; 1
    2de0:	0e 94 83 17 	call	0x2f06	; 0x2f06 <lcd_data>
    2de4:	1f 5f       	subi	r17, 0xFF	; 255
    2de6:	18 30       	cpi	r17, 0x08	; 8
    2de8:	98 f3       	brcs	.-26     	; 0x2dd0 <lcd_clrscr+0x2a>
    2dea:	0e 94 44 1a 	call	0x3488	; 0x3488 <lcd_home>
    2dee:	c0 58       	subi	r28, 0x80	; 128
    2df0:	df 4f       	sbci	r29, 0xFF	; 255
    2df2:	0f b6       	in	r0, 0x3f	; 63
    2df4:	f8 94       	cli
    2df6:	de bf       	out	0x3e, r29	; 62
    2df8:	0f be       	out	0x3f, r0	; 63
    2dfa:	cd bf       	out	0x3d, r28	; 61
    2dfc:	df 91       	pop	r29
    2dfe:	cf 91       	pop	r28
    2e00:	1f 91       	pop	r17
    2e02:	08 95       	ret

Disassembly of section .text.lcd_init:

00002c02 <lcd_init>:
    2c02:	1f 93       	push	r17
    2c04:	cf 93       	push	r28
    2c06:	df 93       	push	r29
    2c08:	cd b7       	in	r28, 0x3d	; 61
    2c0a:	de b7       	in	r29, 0x3e	; 62
    2c0c:	6c 97       	sbiw	r28, 0x1c	; 28
    2c0e:	0f b6       	in	r0, 0x3f	; 63
    2c10:	f8 94       	cli
    2c12:	de bf       	out	0x3e, r29	; 62
    2c14:	0f be       	out	0x3f, r0	; 63
    2c16:	cd bf       	out	0x3d, r28	; 61
    2c18:	18 2f       	mov	r17, r24
    2c1a:	0e 94 ed 19 	call	0x33da	; 0x33da <i2c_init>
    2c1e:	40 e0       	ldi	r20, 0x00	; 0
    2c20:	11 c0       	rjmp	.+34     	; 0x2c44 <lcd_init+0x42>
    2c22:	24 2f       	mov	r18, r20
    2c24:	30 e0       	ldi	r19, 0x00	; 0
    2c26:	c9 01       	movw	r24, r18
    2c28:	a0 e0       	ldi	r26, 0x00	; 0
    2c2a:	87 5a       	subi	r24, 0xA7	; 167
    2c2c:	9b 4f       	sbci	r25, 0xFB	; 251
    2c2e:	af 4f       	sbci	r26, 0xFF	; 255
    2c30:	fc 01       	movw	r30, r24
    2c32:	84 91       	lpm	r24, Z
    2c34:	e1 e0       	ldi	r30, 0x01	; 1
    2c36:	f0 e0       	ldi	r31, 0x00	; 0
    2c38:	ec 0f       	add	r30, r28
    2c3a:	fd 1f       	adc	r31, r29
    2c3c:	e2 0f       	add	r30, r18
    2c3e:	f3 1f       	adc	r31, r19
    2c40:	80 83       	st	Z, r24
    2c42:	4f 5f       	subi	r20, 0xFF	; 255
    2c44:	4b 31       	cpi	r20, 0x1B	; 27
    2c46:	68 f3       	brcs	.-38     	; 0x2c22 <lcd_init+0x20>
    2c48:	1c 8f       	std	Y+28, r17	; 0x1c
    2c4a:	6c e1       	ldi	r22, 0x1C	; 28
    2c4c:	ce 01       	movw	r24, r28
    2c4e:	01 96       	adiw	r24, 0x01	; 1
    2c50:	0e 94 2e 18 	call	0x305c	; 0x305c <lcd_command>
    2c54:	0e 94 d3 16 	call	0x2da6	; 0x2da6 <lcd_clrscr>
    2c58:	6c 96       	adiw	r28, 0x1c	; 28
    2c5a:	0f b6       	in	r0, 0x3f	; 63
    2c5c:	f8 94       	cli
    2c5e:	de bf       	out	0x3e, r29	; 62
    2c60:	0f be       	out	0x3f, r0	; 63
    2c62:	cd bf       	out	0x3d, r28	; 61
    2c64:	df 91       	pop	r29
    2c66:	cf 91       	pop	r28
    2c68:	1f 91       	pop	r17
    2c6a:	08 95       	ret

Disassembly of section .text.lcd_putc:

000017ca <lcd_putc>:
    17ca:	cf 92       	push	r12
    17cc:	df 92       	push	r13
    17ce:	ef 92       	push	r14
    17d0:	ff 92       	push	r15
    17d2:	0f 93       	push	r16
    17d4:	1f 93       	push	r17
    17d6:	cf 93       	push	r28
    17d8:	df 93       	push	r29
    17da:	cd b7       	in	r28, 0x3d	; 61
    17dc:	de b7       	in	r29, 0x3e	; 62
    17de:	6d 97       	sbiw	r28, 0x1d	; 29
    17e0:	0f b6       	in	r0, 0x3f	; 63
    17e2:	f8 94       	cli
    17e4:	de bf       	out	0x3e, r29	; 62
    17e6:	0f be       	out	0x3f, r0	; 63
    17e8:	cd bf       	out	0x3d, r28	; 61
    17ea:	89 30       	cpi	r24, 0x09	; 9
    17ec:	01 f1       	breq	.+64     	; 0x182e <lcd_putc+0x64>
    17ee:	18 f4       	brcc	.+6      	; 0x17f6 <lcd_putc+0x2c>
    17f0:	88 30       	cpi	r24, 0x08	; 8
    17f2:	39 f0       	breq	.+14     	; 0x1802 <lcd_putc+0x38>
    17f4:	52 c0       	rjmp	.+164    	; 0x189a <lcd_putc+0xd0>
    17f6:	8a 30       	cpi	r24, 0x0A	; 10
    17f8:	e9 f1       	breq	.+122    	; 0x1874 <lcd_putc+0xaa>
    17fa:	8d 30       	cpi	r24, 0x0D	; 13
    17fc:	09 f4       	brne	.+2      	; 0x1800 <lcd_putc+0x36>
    17fe:	47 c0       	rjmp	.+142    	; 0x188e <lcd_putc+0xc4>
    1800:	4c c0       	rjmp	.+152    	; 0x189a <lcd_putc+0xd0>
    1802:	02 e2       	ldi	r16, 0x22	; 34
    1804:	11 e0       	ldi	r17, 0x01	; 1
    1806:	f8 01       	movw	r30, r16
    1808:	80 81       	ld	r24, Z
    180a:	90 91 26 01 	lds	r25, 0x0126	; 0x800126 <charMode>
    180e:	61 81       	ldd	r22, Z+1	; 0x01
    1810:	89 1b       	sub	r24, r25
    1812:	0e 94 ff 19 	call	0x33fe	; 0x33fe <lcd_gotoxy>
    1816:	80 e2       	ldi	r24, 0x20	; 32
    1818:	0e 94 e5 0b 	call	0x17ca	; 0x17ca <lcd_putc>
    181c:	f8 01       	movw	r30, r16
    181e:	80 81       	ld	r24, Z
    1820:	90 91 26 01 	lds	r25, 0x0126	; 0x800126 <charMode>
    1824:	61 81       	ldd	r22, Z+1	; 0x01
    1826:	89 1b       	sub	r24, r25
    1828:	0e 94 ff 19 	call	0x33fe	; 0x33fe <lcd_gotoxy>
    182c:	8f c1       	rjmp	.+798    	; 0x1b4c <lcd_putc+0x382>
    182e:	80 91 22 01 	lds	r24, 0x0122	; 0x800122 <cursorPosition>
    1832:	90 91 26 01 	lds	r25, 0x0126	; 0x800126 <charMode>
    1836:	29 2f       	mov	r18, r25
    1838:	30 e0       	ldi	r19, 0x00	; 0
    183a:	22 0f       	add	r18, r18
    183c:	33 1f       	adc	r19, r19
    183e:	22 0f       	add	r18, r18
    1840:	33 1f       	adc	r19, r19
    1842:	b9 01       	movw	r22, r18
    1844:	68 0f       	add	r22, r24
    1846:	71 1d       	adc	r23, r1
    1848:	45 e1       	ldi	r20, 0x15	; 21
    184a:	50 e0       	ldi	r21, 0x00	; 0
    184c:	8a 01       	movw	r16, r20
    184e:	02 1b       	sub	r16, r18
    1850:	13 0b       	sbc	r17, r19
    1852:	60 17       	cp	r22, r16
    1854:	71 07       	cpc	r23, r17
    1856:	40 f4       	brcc	.+16     	; 0x1868 <lcd_putc+0x9e>
    1858:	99 0f       	add	r25, r25
    185a:	99 0f       	add	r25, r25
    185c:	60 91 23 01 	lds	r22, 0x0123	; 0x800123 <cursorPosition+0x1>
    1860:	89 0f       	add	r24, r25
    1862:	0e 94 ff 19 	call	0x33fe	; 0x33fe <lcd_gotoxy>
    1866:	72 c1       	rjmp	.+740    	; 0x1b4c <lcd_putc+0x382>
    1868:	60 91 23 01 	lds	r22, 0x0123	; 0x800123 <cursorPosition+0x1>
    186c:	85 e1       	ldi	r24, 0x15	; 21
    186e:	0e 94 ff 19 	call	0x33fe	; 0x33fe <lcd_gotoxy>
    1872:	6c c1       	rjmp	.+728    	; 0x1b4c <lcd_putc+0x382>
    1874:	80 91 23 01 	lds	r24, 0x0123	; 0x800123 <cursorPosition+0x1>
    1878:	87 30       	cpi	r24, 0x07	; 7
    187a:	08 f0       	brcs	.+2      	; 0x187e <lcd_putc+0xb4>
    187c:	67 c1       	rjmp	.+718    	; 0x1b4c <lcd_putc+0x382>
    187e:	60 91 26 01 	lds	r22, 0x0126	; 0x800126 <charMode>
    1882:	68 0f       	add	r22, r24
    1884:	80 91 22 01 	lds	r24, 0x0122	; 0x800122 <cursorPosition>
    1888:	0e 94 ff 19 	call	0x33fe	; 0x33fe <lcd_gotoxy>
    188c:	5f c1       	rjmp	.+702    	; 0x1b4c <lcd_putc+0x382>
    188e:	60 91 23 01 	lds	r22, 0x0123	; 0x800123 <cursorPosition+0x1>
    1892:	80 e0       	ldi	r24, 0x00	; 0
    1894:	0e 94 ff 19 	call	0x33fe	; 0x33fe <lcd_gotoxy>
    1898:	59 c1       	rjmp	.+690    	; 0x1b4c <lcd_putc+0x382>
    189a:	a0 91 22 01 	lds	r26, 0x0122	; 0x800122 <cursorPosition>
    189e:	aa 37       	cpi	r26, 0x7A	; 122
    18a0:	08 f0       	brcs	.+2      	; 0x18a4 <lcd_putc+0xda>
    18a2:	54 c1       	rjmp	.+680    	; 0x1b4c <lcd_putc+0x382>
    18a4:	80 32       	cpi	r24, 0x20	; 32
    18a6:	08 f4       	brcc	.+2      	; 0x18aa <lcd_putc+0xe0>
    18a8:	51 c1       	rjmp	.+674    	; 0x1b4c <lcd_putc+0x382>
    18aa:	80 52       	subi	r24, 0x20	; 32
    18ac:	25 e7       	ldi	r18, 0x75	; 117
    18ae:	34 e0       	ldi	r19, 0x04	; 4
    18b0:	40 e0       	ldi	r20, 0x00	; 0
    18b2:	f9 01       	movw	r30, r18
    18b4:	24 91       	lpm	r18, Z
    18b6:	82 17       	cp	r24, r18
    18b8:	c8 f4       	brcc	.+50     	; 0x18ec <lcd_putc+0x122>
    18ba:	32 c0       	rjmp	.+100    	; 0x1920 <lcd_putc+0x156>
    18bc:	44 0f       	add	r20, r20
    18be:	55 1f       	adc	r21, r21
    18c0:	9a 01       	movw	r18, r20
    18c2:	40 e0       	ldi	r20, 0x00	; 0
    18c4:	2c 58       	subi	r18, 0x8C	; 140
    18c6:	3b 4f       	sbci	r19, 0xFB	; 251
    18c8:	4f 4f       	sbci	r20, 0xFF	; 255
    18ca:	64 2f       	mov	r22, r20
    18cc:	a9 01       	movw	r20, r18
    18ce:	fa 01       	movw	r30, r20
    18d0:	44 91       	lpm	r20, Z
    18d2:	50 e0       	ldi	r21, 0x00	; 0
    18d4:	40 52       	subi	r20, 0x20	; 32
    18d6:	51 09       	sbc	r21, r1
    18d8:	68 2f       	mov	r22, r24
    18da:	70 e0       	ldi	r23, 0x00	; 0
    18dc:	46 17       	cp	r20, r22
    18de:	57 07       	cpc	r21, r23
    18e0:	19 f4       	brne	.+6      	; 0x18e8 <lcd_putc+0x11e>
    18e2:	f8 01       	movw	r30, r16
    18e4:	84 91       	lpm	r24, Z
    18e6:	19 c0       	rjmp	.+50     	; 0x191a <lcd_putc+0x150>
    18e8:	9f 5f       	subi	r25, 0xFF	; 255
    18ea:	01 c0       	rjmp	.+2      	; 0x18ee <lcd_putc+0x124>
    18ec:	90 e0       	ldi	r25, 0x00	; 0
    18ee:	49 2f       	mov	r20, r25
    18f0:	50 e0       	ldi	r21, 0x00	; 0
    18f2:	6a 01       	movw	r12, r20
    18f4:	cc 0c       	add	r12, r12
    18f6:	dd 1c       	adc	r13, r13
    18f8:	ff ef       	ldi	r31, 0xFF	; 255
    18fa:	cf 1a       	sub	r12, r31
    18fc:	df 0a       	sbc	r13, r31
    18fe:	e1 2c       	mov	r14, r1
    1900:	2e 2d       	mov	r18, r14
    1902:	86 01       	movw	r16, r12
    1904:	0c 58       	subi	r16, 0x8C	; 140
    1906:	1b 4f       	sbci	r17, 0xFB	; 251
    1908:	2f 4f       	sbci	r18, 0xFF	; 255
    190a:	68 01       	movw	r12, r16
    190c:	e2 2e       	mov	r14, r18
    190e:	86 01       	movw	r16, r12
    1910:	f6 01       	movw	r30, r12
    1912:	64 91       	lpm	r22, Z
    1914:	6f 3f       	cpi	r22, 0xFF	; 255
    1916:	91 f6       	brne	.-92     	; 0x18bc <lcd_putc+0xf2>
    1918:	8f ef       	ldi	r24, 0xFF	; 255
    191a:	8f 3f       	cpi	r24, 0xFF	; 255
    191c:	09 f4       	brne	.+2      	; 0x1920 <lcd_putc+0x156>
    191e:	16 c1       	rjmp	.+556    	; 0x1b4c <lcd_putc+0x382>
    1920:	90 91 26 01 	lds	r25, 0x0126	; 0x800126 <charMode>
    1924:	92 30       	cpi	r25, 0x02	; 2
    1926:	09 f0       	breq	.+2      	; 0x192a <lcd_putc+0x160>
    1928:	e2 c0       	rjmp	.+452    	; 0x1aee <lcd_putc+0x324>
    192a:	b0 e0       	ldi	r27, 0x00	; 0
    192c:	1c 96       	adiw	r26, 0x0c	; 12
    192e:	a1 38       	cpi	r26, 0x81	; 129
    1930:	b1 05       	cpc	r27, r1
    1932:	08 f0       	brcs	.+2      	; 0x1936 <lcd_putc+0x16c>
    1934:	0b c1       	rjmp	.+534    	; 0x1b4c <lcd_putc+0x382>
    1936:	10 e0       	ldi	r17, 0x00	; 0
    1938:	57 c0       	rjmp	.+174    	; 0x19e8 <lcd_putc+0x21e>
    193a:	61 2f       	mov	r22, r17
    193c:	70 e0       	ldi	r23, 0x00	; 0
    193e:	fb 01       	movw	r30, r22
    1940:	ee 0f       	add	r30, r30
    1942:	ff 1f       	adc	r31, r31
    1944:	21 e0       	ldi	r18, 0x01	; 1
    1946:	30 e0       	ldi	r19, 0x00	; 0
    1948:	2c 0f       	add	r18, r28
    194a:	3d 1f       	adc	r19, r29
    194c:	e2 0f       	add	r30, r18
    194e:	f3 1f       	adc	r31, r19
    1950:	15 86       	std	Z+13, r1	; 0x0d
    1952:	14 86       	std	Z+12, r1	; 0x0c
    1954:	28 2f       	mov	r18, r24
    1956:	30 e0       	ldi	r19, 0x00	; 0
    1958:	69 01       	movw	r12, r18
    195a:	cc 0c       	add	r12, r12
    195c:	dd 1c       	adc	r13, r13
    195e:	c2 0e       	add	r12, r18
    1960:	d3 1e       	adc	r13, r19
    1962:	cc 0c       	add	r12, r12
    1964:	dd 1c       	adc	r13, r13
    1966:	c6 0e       	add	r12, r22
    1968:	d7 1e       	adc	r13, r23
    196a:	96 01       	movw	r18, r12
    196c:	40 e0       	ldi	r20, 0x00	; 0
    196e:	2e 5f       	subi	r18, 0xFE	; 254
    1970:	3e 4f       	sbci	r19, 0xFE	; 254
    1972:	4f 4f       	sbci	r20, 0xFF	; 255
    1974:	f9 01       	movw	r30, r18
    1976:	c4 90       	lpm	r12, Z
    1978:	90 e0       	ldi	r25, 0x00	; 0
    197a:	33 c0       	rjmp	.+102    	; 0x19e2 <lcd_putc+0x218>
    197c:	e9 2f       	mov	r30, r25
    197e:	f0 e0       	ldi	r31, 0x00	; 0
    1980:	2c 2d       	mov	r18, r12
    1982:	30 e0       	ldi	r19, 0x00	; 0
    1984:	09 2e       	mov	r0, r25
    1986:	02 c0       	rjmp	.+4      	; 0x198c <lcd_putc+0x1c2>
    1988:	35 95       	asr	r19
    198a:	27 95       	ror	r18
    198c:	0a 94       	dec	r0
    198e:	e2 f7       	brpl	.-8      	; 0x1988 <lcd_putc+0x1be>
    1990:	20 ff       	sbrs	r18, 0
    1992:	26 c0       	rjmp	.+76     	; 0x19e0 <lcd_putc+0x216>
    1994:	ee 0f       	add	r30, r30
    1996:	ff 1f       	adc	r31, r31
    1998:	21 e0       	ldi	r18, 0x01	; 1
    199a:	30 e0       	ldi	r19, 0x00	; 0
    199c:	79 01       	movw	r14, r18
    199e:	0e 2e       	mov	r0, r30
    19a0:	02 c0       	rjmp	.+4      	; 0x19a6 <lcd_putc+0x1dc>
    19a2:	ee 0c       	add	r14, r14
    19a4:	ff 1c       	adc	r15, r15
    19a6:	0a 94       	dec	r0
    19a8:	e2 f7       	brpl	.-8      	; 0x19a2 <lcd_putc+0x1d8>
    19aa:	db 01       	movw	r26, r22
    19ac:	aa 0f       	add	r26, r26
    19ae:	bb 1f       	adc	r27, r27
    19b0:	41 e0       	ldi	r20, 0x01	; 1
    19b2:	50 e0       	ldi	r21, 0x00	; 0
    19b4:	4c 0f       	add	r20, r28
    19b6:	5d 1f       	adc	r21, r29
    19b8:	a4 0f       	add	r26, r20
    19ba:	b5 1f       	adc	r27, r21
    19bc:	1c 96       	adiw	r26, 0x0c	; 12
    19be:	4d 91       	ld	r20, X+
    19c0:	5c 91       	ld	r21, X
    19c2:	1d 97       	sbiw	r26, 0x0d	; 13
    19c4:	4e 29       	or	r20, r14
    19c6:	5f 29       	or	r21, r15
    19c8:	31 96       	adiw	r30, 0x01	; 1
    19ca:	02 c0       	rjmp	.+4      	; 0x19d0 <lcd_putc+0x206>
    19cc:	22 0f       	add	r18, r18
    19ce:	33 1f       	adc	r19, r19
    19d0:	ea 95       	dec	r30
    19d2:	e2 f7       	brpl	.-8      	; 0x19cc <lcd_putc+0x202>
    19d4:	24 2b       	or	r18, r20
    19d6:	35 2b       	or	r19, r21
    19d8:	1d 96       	adiw	r26, 0x0d	; 13
    19da:	3c 93       	st	X, r19
    19dc:	2e 93       	st	-X, r18
    19de:	1c 97       	sbiw	r26, 0x0c	; 12
    19e0:	9f 5f       	subi	r25, 0xFF	; 255
    19e2:	98 30       	cpi	r25, 0x08	; 8
    19e4:	58 f2       	brcs	.-106    	; 0x197c <lcd_putc+0x1b2>
    19e6:	1f 5f       	subi	r17, 0xFF	; 255
    19e8:	16 30       	cpi	r17, 0x06	; 6
    19ea:	08 f4       	brcc	.+2      	; 0x19ee <lcd_putc+0x224>
    19ec:	a6 cf       	rjmp	.-180    	; 0x193a <lcd_putc+0x170>
    19ee:	20 e0       	ldi	r18, 0x00	; 0
    19f0:	15 c0       	rjmp	.+42     	; 0x1a1c <lcd_putc+0x252>
    19f2:	82 2f       	mov	r24, r18
    19f4:	90 e0       	ldi	r25, 0x00	; 0
    19f6:	88 0f       	add	r24, r24
    19f8:	99 1f       	adc	r25, r25
    19fa:	e1 e0       	ldi	r30, 0x01	; 1
    19fc:	f0 e0       	ldi	r31, 0x00	; 0
    19fe:	ec 0f       	add	r30, r28
    1a00:	fd 1f       	adc	r31, r29
    1a02:	e8 0f       	add	r30, r24
    1a04:	f9 1f       	adc	r31, r25
    1a06:	34 85       	ldd	r19, Z+12	; 0x0c
    1a08:	30 83       	st	Z, r19
    1a0a:	01 96       	adiw	r24, 0x01	; 1
    1a0c:	e1 e0       	ldi	r30, 0x01	; 1
    1a0e:	f0 e0       	ldi	r31, 0x00	; 0
    1a10:	ec 0f       	add	r30, r28
    1a12:	fd 1f       	adc	r31, r29
    1a14:	e8 0f       	add	r30, r24
    1a16:	f9 1f       	adc	r31, r25
    1a18:	30 83       	st	Z, r19
    1a1a:	2f 5f       	subi	r18, 0xFF	; 255
    1a1c:	26 30       	cpi	r18, 0x06	; 6
    1a1e:	48 f3       	brcs	.-46     	; 0x19f2 <lcd_putc+0x228>
    1a20:	6c e0       	ldi	r22, 0x0C	; 12
    1a22:	70 e0       	ldi	r23, 0x00	; 0
    1a24:	ce 01       	movw	r24, r28
    1a26:	01 96       	adiw	r24, 0x01	; 1
    1a28:	0e 94 83 17 	call	0x2f06	; 0x2f06 <lcd_data>
    1a2c:	e2 e2       	ldi	r30, 0x22	; 34
    1a2e:	f1 e0       	ldi	r31, 0x01	; 1
    1a30:	81 81       	ldd	r24, Z+1	; 0x01
    1a32:	8f 54       	subi	r24, 0x4F	; 79
    1a34:	89 8f       	std	Y+25, r24	; 0x19
    1a36:	81 e2       	ldi	r24, 0x21	; 33
    1a38:	8a 8f       	std	Y+26, r24	; 0x1a
    1a3a:	80 81       	ld	r24, Z
    1a3c:	92 e0       	ldi	r25, 0x02	; 2
    1a3e:	98 0f       	add	r25, r24
    1a40:	9f 70       	andi	r25, 0x0F	; 15
    1a42:	9b 8f       	std	Y+27, r25	; 0x1b
    1a44:	90 e0       	ldi	r25, 0x00	; 0
    1a46:	02 96       	adiw	r24, 0x02	; 2
    1a48:	80 7f       	andi	r24, 0xF0	; 240
    1a4a:	99 27       	eor	r25, r25
    1a4c:	95 95       	asr	r25
    1a4e:	87 95       	ror	r24
    1a50:	95 95       	asr	r25
    1a52:	87 95       	ror	r24
    1a54:	95 95       	asr	r25
    1a56:	87 95       	ror	r24
    1a58:	95 95       	asr	r25
    1a5a:	87 95       	ror	r24
    1a5c:	80 5f       	subi	r24, 0xF0	; 240
    1a5e:	8c 8f       	std	Y+28, r24	; 0x1c
    1a60:	8f e7       	ldi	r24, 0x7F	; 127
    1a62:	8d 8f       	std	Y+29, r24	; 0x1d
    1a64:	65 e0       	ldi	r22, 0x05	; 5
    1a66:	ce 01       	movw	r24, r28
    1a68:	49 96       	adiw	r24, 0x19	; 25
    1a6a:	0e 94 2e 18 	call	0x305c	; 0x305c <lcd_command>
    1a6e:	20 e0       	ldi	r18, 0x00	; 0
    1a70:	15 c0       	rjmp	.+42     	; 0x1a9c <lcd_putc+0x2d2>
    1a72:	82 2f       	mov	r24, r18
    1a74:	90 e0       	ldi	r25, 0x00	; 0
    1a76:	88 0f       	add	r24, r24
    1a78:	99 1f       	adc	r25, r25
    1a7a:	e1 e0       	ldi	r30, 0x01	; 1
    1a7c:	f0 e0       	ldi	r31, 0x00	; 0
    1a7e:	ec 0f       	add	r30, r28
    1a80:	fd 1f       	adc	r31, r29
    1a82:	e8 0f       	add	r30, r24
    1a84:	f9 1f       	adc	r31, r25
    1a86:	35 85       	ldd	r19, Z+13	; 0x0d
    1a88:	30 83       	st	Z, r19
    1a8a:	01 96       	adiw	r24, 0x01	; 1
    1a8c:	e1 e0       	ldi	r30, 0x01	; 1
    1a8e:	f0 e0       	ldi	r31, 0x00	; 0
    1a90:	ec 0f       	add	r30, r28
    1a92:	fd 1f       	adc	r31, r29
    1a94:	e8 0f       	add	r30, r24
    1a96:	f9 1f       	adc	r31, r25
    1a98:	30 83       	st	Z, r19
    1a9a:	2f 5f       	subi	r18, 0xFF	; 255
    1a9c:	26 30       	cpi	r18, 0x06	; 6
    1a9e:	48 f3       	brcs	.-46     	; 0x1a72 <lcd_putc+0x2a8>
    1aa0:	6c e0       	ldi	r22, 0x0C	; 12
    1aa2:	70 e0       	ldi	r23, 0x00	; 0
    1aa4:	ce 01       	movw	r24, r28
    1aa6:	01 96       	adiw	r24, 0x01	; 1
    1aa8:	0e 94 83 17 	call	0x2f06	; 0x2f06 <lcd_data>
    1aac:	02 e2       	ldi	r16, 0x22	; 34
    1aae:	11 e0       	ldi	r17, 0x01	; 1
    1ab0:	f8 01       	movw	r30, r16
    1ab2:	81 81       	ldd	r24, Z+1	; 0x01
    1ab4:	80 55       	subi	r24, 0x50	; 80
    1ab6:	89 8f       	std	Y+25, r24	; 0x19
    1ab8:	80 81       	ld	r24, Z
    1aba:	9e e0       	ldi	r25, 0x0E	; 14
    1abc:	98 0f       	add	r25, r24
    1abe:	9f 70       	andi	r25, 0x0F	; 15
    1ac0:	9b 8f       	std	Y+27, r25	; 0x1b
    1ac2:	90 e0       	ldi	r25, 0x00	; 0
    1ac4:	0e 96       	adiw	r24, 0x0e	; 14
    1ac6:	80 7f       	andi	r24, 0xF0	; 240
    1ac8:	99 27       	eor	r25, r25
    1aca:	92 95       	swap	r25
    1acc:	82 95       	swap	r24
    1ace:	8f 70       	andi	r24, 0x0F	; 15
    1ad0:	89 27       	eor	r24, r25
    1ad2:	9f 70       	andi	r25, 0x0F	; 15
    1ad4:	89 27       	eor	r24, r25
    1ad6:	80 5f       	subi	r24, 0xF0	; 240
    1ad8:	8c 8f       	std	Y+28, r24	; 0x1c
    1ada:	65 e0       	ldi	r22, 0x05	; 5
    1adc:	ce 01       	movw	r24, r28
    1ade:	49 96       	adiw	r24, 0x19	; 25
    1ae0:	0e 94 2e 18 	call	0x305c	; 0x305c <lcd_command>
    1ae4:	f8 01       	movw	r30, r16
    1ae6:	80 81       	ld	r24, Z
    1ae8:	84 5f       	subi	r24, 0xF4	; 244
    1aea:	80 83       	st	Z, r24
    1aec:	2f c0       	rjmp	.+94     	; 0x1b4c <lcd_putc+0x382>
    1aee:	b0 e0       	ldi	r27, 0x00	; 0
    1af0:	16 96       	adiw	r26, 0x06	; 6
    1af2:	a1 38       	cpi	r26, 0x81	; 129
    1af4:	b1 05       	cpc	r27, r1
    1af6:	50 f5       	brcc	.+84     	; 0x1b4c <lcd_putc+0x382>
    1af8:	90 e0       	ldi	r25, 0x00	; 0
    1afa:	1b c0       	rjmp	.+54     	; 0x1b32 <lcd_putc+0x368>
    1afc:	48 2f       	mov	r20, r24
    1afe:	50 e0       	ldi	r21, 0x00	; 0
    1b00:	29 2f       	mov	r18, r25
    1b02:	30 e0       	ldi	r19, 0x00	; 0
    1b04:	ba 01       	movw	r22, r20
    1b06:	66 0f       	add	r22, r22
    1b08:	77 1f       	adc	r23, r23
    1b0a:	46 0f       	add	r20, r22
    1b0c:	57 1f       	adc	r21, r23
    1b0e:	44 0f       	add	r20, r20
    1b10:	55 1f       	adc	r21, r21
    1b12:	42 0f       	add	r20, r18
    1b14:	53 1f       	adc	r21, r19
    1b16:	60 e0       	ldi	r22, 0x00	; 0
    1b18:	4e 5f       	subi	r20, 0xFE	; 254
    1b1a:	5e 4f       	sbci	r21, 0xFE	; 254
    1b1c:	6f 4f       	sbci	r22, 0xFF	; 255
    1b1e:	fa 01       	movw	r30, r20
    1b20:	44 91       	lpm	r20, Z
    1b22:	e1 e0       	ldi	r30, 0x01	; 1
    1b24:	f0 e0       	ldi	r31, 0x00	; 0
    1b26:	ec 0f       	add	r30, r28
    1b28:	fd 1f       	adc	r31, r29
    1b2a:	e2 0f       	add	r30, r18
    1b2c:	f3 1f       	adc	r31, r19
    1b2e:	40 83       	st	Z, r20
    1b30:	9f 5f       	subi	r25, 0xFF	; 255
    1b32:	96 30       	cpi	r25, 0x06	; 6
    1b34:	18 f3       	brcs	.-58     	; 0x1afc <lcd_putc+0x332>
    1b36:	66 e0       	ldi	r22, 0x06	; 6
    1b38:	70 e0       	ldi	r23, 0x00	; 0
    1b3a:	ce 01       	movw	r24, r28
    1b3c:	01 96       	adiw	r24, 0x01	; 1
    1b3e:	0e 94 83 17 	call	0x2f06	; 0x2f06 <lcd_data>
    1b42:	e2 e2       	ldi	r30, 0x22	; 34
    1b44:	f1 e0       	ldi	r31, 0x01	; 1
    1b46:	80 81       	ld	r24, Z
    1b48:	8a 5f       	subi	r24, 0xFA	; 250
    1b4a:	80 83       	st	Z, r24
    1b4c:	6d 96       	adiw	r28, 0x1d	; 29
    1b4e:	0f b6       	in	r0, 0x3f	; 63
    1b50:	f8 94       	cli
    1b52:	de bf       	out	0x3e, r29	; 62
    1b54:	0f be       	out	0x3f, r0	; 63
    1b56:	cd bf       	out	0x3d, r28	; 61
    1b58:	df 91       	pop	r29
    1b5a:	cf 91       	pop	r28
    1b5c:	1f 91       	pop	r17
    1b5e:	0f 91       	pop	r16
    1b60:	ff 90       	pop	r15
    1b62:	ef 90       	pop	r14
    1b64:	df 90       	pop	r13
    1b66:	cf 90       	pop	r12
    1b68:	08 95       	ret

Disassembly of section .text.lcd_puts:

00003214 <lcd_puts>:
}
void lcd_puts(const char* s){
    3214:	cf 92       	push	r12
    3216:	df 92       	push	r13
    3218:	ef 92       	push	r14
    321a:	6b 01       	movw	r12, r22
    321c:	e8 2e       	mov	r14, r24
    while (*s) {
    321e:	06 c0       	rjmp	.+12     	; 0x322c <lcd_puts+0x18>
        lcd_putc(*s++);
    3220:	9f ef       	ldi	r25, 0xFF	; 255
    3222:	c9 1a       	sub	r12, r25
    3224:	d9 0a       	sbc	r13, r25
    3226:	e9 0a       	sbc	r14, r25
    3228:	0e 94 e5 0b 	call	0x17ca	; 0x17ca <lcd_putc>
}
void lcd_charMode(uint8_t mode){
    charMode = mode;
}
void lcd_puts(const char* s){
    while (*s) {
    322c:	f6 01       	movw	r30, r12
    322e:	84 91       	lpm	r24, Z
    3230:	e7 fc       	sbrc	r14, 7
    3232:	80 81       	ld	r24, Z
    3234:	81 11       	cpse	r24, r1
    3236:	f4 cf       	rjmp	.-24     	; 0x3220 <lcd_puts+0xc>
        lcd_putc(*s++);
    }
}
    3238:	ef 90       	pop	r14
    323a:	df 90       	pop	r13
    323c:	cf 90       	pop	r12
    323e:	08 95       	ret

Disassembly of section .text.tw_start:

00003110 <tw_start>:
{
	/* Send START condition */
#if DEBUG_LOG
	printf(BG "Send START condition..." RESET);
#endif
	TWCR =  (1 << TWINT) | (1 << TWEN) | (1 << TWSTA);
    3110:	84 ea       	ldi	r24, 0xA4	; 164
    3112:	80 93 bc 00 	sts	0x00BC, r24	; 0x8000bc <__TEXT_REGION_LENGTH__+0x7f80bc>
	
	/* Wait for TWINT flag to set */
	while (!(TWCR & (1 << TWINT)));
    3116:	80 91 bc 00 	lds	r24, 0x00BC	; 0x8000bc <__TEXT_REGION_LENGTH__+0x7f80bc>
    311a:	88 23       	and	r24, r24
    311c:	e4 f7       	brge	.-8      	; 0x3116 <tw_start+0x6>
	
	/* Check error */
	if (TW_STATUS != TW_START && TW_STATUS != TW_REP_START)
    311e:	80 91 b9 00 	lds	r24, 0x00B9	; 0x8000b9 <__TEXT_REGION_LENGTH__+0x7f80b9>
    3122:	88 7f       	andi	r24, 0xF8	; 248
    3124:	88 30       	cpi	r24, 0x08	; 8
    3126:	51 f0       	breq	.+20     	; 0x313c <tw_start+0x2c>
    3128:	80 91 b9 00 	lds	r24, 0x00B9	; 0x8000b9 <__TEXT_REGION_LENGTH__+0x7f80b9>
    312c:	88 7f       	andi	r24, 0xF8	; 248
    312e:	80 31       	cpi	r24, 0x10	; 16
    3130:	41 f0       	breq	.+16     	; 0x3142 <tw_start+0x32>
	{
#if DEBUG_LOG
		printf("\n");
#endif
		return TW_STATUS;
    3132:	80 91 b9 00 	lds	r24, 0x00B9	; 0x8000b9 <__TEXT_REGION_LENGTH__+0x7f80b9>
    3136:	88 7f       	andi	r24, 0xF8	; 248
    3138:	90 e0       	ldi	r25, 0x00	; 0
    313a:	08 95       	ret
	}
	
#if DEBUG_LOG
	printf("SUCCESS\n");
#endif
	return SUCCESS;
    313c:	80 e0       	ldi	r24, 0x00	; 0
    313e:	90 e0       	ldi	r25, 0x00	; 0
    3140:	08 95       	ret
    3142:	80 e0       	ldi	r24, 0x00	; 0
    3144:	90 e0       	ldi	r25, 0x00	; 0
}
    3146:	08 95       	ret

Disassembly of section .text.tw_stop:

000034ae <tw_stop>:
{
	/* Send STOP condition */
#if DEBUG_LOG
	puts(BG "Send STOP condition." RESET);
#endif
	TWCR = (1 << TWINT) | (1 << TWEN) | (1 << TWSTO);
    34ae:	84 e9       	ldi	r24, 0x94	; 148
    34b0:	80 93 bc 00 	sts	0x00BC, r24	; 0x8000bc <__TEXT_REGION_LENGTH__+0x7f80bc>
    34b4:	08 95       	ret

Disassembly of section .text.tw_write_sla:

00003098 <tw_write_sla>:
{
	/* Transmit slave address with read/write flag */
#if DEBUG_LOG
	printf(BG "Write SLA + R/W: 0x%02X..." RESET, sla);
#endif
	TWDR = sla;
    3098:	80 93 bb 00 	sts	0x00BB, r24	; 0x8000bb <__TEXT_REGION_LENGTH__+0x7f80bb>
	TWCR = (1 << TWINT) | (1 << TWEN);
    309c:	84 e8       	ldi	r24, 0x84	; 132
    309e:	80 93 bc 00 	sts	0x00BC, r24	; 0x8000bc <__TEXT_REGION_LENGTH__+0x7f80bc>
	
	/* Wait for TWINT flag to set */
	while (!(TWCR & (1 << TWINT)));
    30a2:	80 91 bc 00 	lds	r24, 0x00BC	; 0x8000bc <__TEXT_REGION_LENGTH__+0x7f80bc>
    30a6:	88 23       	and	r24, r24
    30a8:	e4 f7       	brge	.-8      	; 0x30a2 <tw_write_sla+0xa>
	if (TW_STATUS != TW_MT_SLA_ACK && TW_STATUS != TW_MR_SLA_ACK)
    30aa:	80 91 b9 00 	lds	r24, 0x00B9	; 0x8000b9 <__TEXT_REGION_LENGTH__+0x7f80b9>
    30ae:	88 7f       	andi	r24, 0xF8	; 248
    30b0:	88 31       	cpi	r24, 0x18	; 24
    30b2:	51 f0       	breq	.+20     	; 0x30c8 <tw_write_sla+0x30>
    30b4:	80 91 b9 00 	lds	r24, 0x00B9	; 0x8000b9 <__TEXT_REGION_LENGTH__+0x7f80b9>
    30b8:	88 7f       	andi	r24, 0xF8	; 248
    30ba:	80 34       	cpi	r24, 0x40	; 64
    30bc:	41 f0       	breq	.+16     	; 0x30ce <tw_write_sla+0x36>
	{
#if DEBUG_LOG
		printf("\n");
#endif
		return TW_STATUS;
    30be:	80 91 b9 00 	lds	r24, 0x00B9	; 0x8000b9 <__TEXT_REGION_LENGTH__+0x7f80b9>
    30c2:	88 7f       	andi	r24, 0xF8	; 248
    30c4:	90 e0       	ldi	r25, 0x00	; 0
    30c6:	08 95       	ret
	}

#if DEBUG_LOG
	printf("SUCCESS\n");
#endif
	return SUCCESS;
    30c8:	80 e0       	ldi	r24, 0x00	; 0
    30ca:	90 e0       	ldi	r25, 0x00	; 0
    30cc:	08 95       	ret
    30ce:	80 e0       	ldi	r24, 0x00	; 0
    30d0:	90 e0       	ldi	r25, 0x00	; 0
}
    30d2:	08 95       	ret

Disassembly of section .text.tw_write:

00003240 <tw_write>:
{
	/* Transmit 1 byte*/
#if DEBUG_LOG
	printf(BG "Write data byte: 0x%02X..." RESET, data);
#endif
	TWDR = data;
    3240:	80 93 bb 00 	sts	0x00BB, r24	; 0x8000bb <__TEXT_REGION_LENGTH__+0x7f80bb>
	TWCR = (1 << TWINT) | (1 << TWEN);
    3244:	84 e8       	ldi	r24, 0x84	; 132
    3246:	80 93 bc 00 	sts	0x00BC, r24	; 0x8000bc <__TEXT_REGION_LENGTH__+0x7f80bc>
	
	/* Wait for TWINT flag to set */
	while (!(TWCR & (1 << TWINT)));
    324a:	80 91 bc 00 	lds	r24, 0x00BC	; 0x8000bc <__TEXT_REGION_LENGTH__+0x7f80bc>
    324e:	88 23       	and	r24, r24
    3250:	e4 f7       	brge	.-8      	; 0x324a <tw_write+0xa>
	if (TW_STATUS != TW_MT_DATA_ACK)
    3252:	80 91 b9 00 	lds	r24, 0x00B9	; 0x8000b9 <__TEXT_REGION_LENGTH__+0x7f80b9>
    3256:	88 7f       	andi	r24, 0xF8	; 248
    3258:	88 32       	cpi	r24, 0x28	; 40
    325a:	29 f0       	breq	.+10     	; 0x3266 <tw_write+0x26>
	{
#if DEBUG_LOG
		printf("\n");
#endif
		return TW_STATUS;
    325c:	80 91 b9 00 	lds	r24, 0x00B9	; 0x8000b9 <__TEXT_REGION_LENGTH__+0x7f80b9>
    3260:	88 7f       	andi	r24, 0xF8	; 248
    3262:	90 e0       	ldi	r25, 0x00	; 0
    3264:	08 95       	ret
	}
	
#if DEBUG_LOG
	printf("SUCCESS\n");
#endif
	return SUCCESS;
    3266:	80 e0       	ldi	r24, 0x00	; 0
    3268:	90 e0       	ldi	r25, 0x00	; 0
}
    326a:	08 95       	ret

Disassembly of section .text.tw_read:

00002ebc <tw_read>:


static uint8_t tw_read(bool read_ack)
{
	if (read_ack)
    2ebc:	88 23       	and	r24, r24
    2ebe:	81 f0       	breq	.+32     	; 0x2ee0 <tw_read+0x24>
	{
		TWCR = (1 << TWINT) | (1 << TWEN) | (1 << TWEA);
    2ec0:	84 ec       	ldi	r24, 0xC4	; 196
    2ec2:	80 93 bc 00 	sts	0x00BC, r24	; 0x8000bc <__TEXT_REGION_LENGTH__+0x7f80bc>
		while (!(TWCR & (1 << TWINT)));
    2ec6:	80 91 bc 00 	lds	r24, 0x00BC	; 0x8000bc <__TEXT_REGION_LENGTH__+0x7f80bc>
    2eca:	88 23       	and	r24, r24
    2ecc:	e4 f7       	brge	.-8      	; 0x2ec6 <tw_read+0xa>
		if (TW_STATUS != TW_MR_DATA_ACK)
    2ece:	80 91 b9 00 	lds	r24, 0x00B9	; 0x8000b9 <__TEXT_REGION_LENGTH__+0x7f80b9>
    2ed2:	88 7f       	andi	r24, 0xF8	; 248
    2ed4:	80 35       	cpi	r24, 0x50	; 80
    2ed6:	a1 f0       	breq	.+40     	; 0x2f00 <tw_read+0x44>
		{
			return TW_STATUS;
    2ed8:	80 91 b9 00 	lds	r24, 0x00B9	; 0x8000b9 <__TEXT_REGION_LENGTH__+0x7f80b9>
    2edc:	88 7f       	andi	r24, 0xF8	; 248
    2ede:	08 95       	ret
		}
	}
	else
	{
		TWCR = (1 << TWINT) | (1 << TWEN);
    2ee0:	84 e8       	ldi	r24, 0x84	; 132
    2ee2:	80 93 bc 00 	sts	0x00BC, r24	; 0x8000bc <__TEXT_REGION_LENGTH__+0x7f80bc>
		while (!(TWCR & (1 << TWINT)));
    2ee6:	80 91 bc 00 	lds	r24, 0x00BC	; 0x8000bc <__TEXT_REGION_LENGTH__+0x7f80bc>
    2eea:	88 23       	and	r24, r24
    2eec:	e4 f7       	brge	.-8      	; 0x2ee6 <tw_read+0x2a>
		if (TW_STATUS != TW_MR_DATA_NACK)
    2eee:	80 91 b9 00 	lds	r24, 0x00B9	; 0x8000b9 <__TEXT_REGION_LENGTH__+0x7f80b9>
    2ef2:	88 7f       	andi	r24, 0xF8	; 248
    2ef4:	88 35       	cpi	r24, 0x58	; 88
    2ef6:	21 f0       	breq	.+8      	; 0x2f00 <tw_read+0x44>
		{
			return TW_STATUS;
    2ef8:	80 91 b9 00 	lds	r24, 0x00B9	; 0x8000b9 <__TEXT_REGION_LENGTH__+0x7f80b9>
    2efc:	88 7f       	andi	r24, 0xF8	; 248
    2efe:	08 95       	ret
		}
	}
	uint8_t data = TWDR;
    2f00:	80 91 bb 00 	lds	r24, 0x00BB	; 0x8000bb <__TEXT_REGION_LENGTH__+0x7f80bb>
#if DEBUG_LOG
	printf(BG "Read data byte: 0x%02X\n" RESET, data);
#endif
	return data;
}
    2f04:	08 95       	ret

Disassembly of section .text.tw_init:

00002fda <tw_init>:


void tw_init(twi_freq_mode_t twi_freq_mode, bool pullup_en)
{
	DDRC  |= (1 << TW_SDA_PIN) | (1 << TW_SCL_PIN);
    2fda:	97 b1       	in	r25, 0x07	; 7
    2fdc:	90 63       	ori	r25, 0x30	; 48
    2fde:	97 b9       	out	0x07, r25	; 7
	if (pullup_en)
    2fe0:	66 23       	and	r22, r22
    2fe2:	21 f0       	breq	.+8      	; 0x2fec <tw_init+0x12>
	{
#if DEBUG_LOG
		puts(BG "Enable pull-up resistor." RESET);
#endif
		PORTC |= (1 << TW_SDA_PIN) | (1 << TW_SCL_PIN);
    2fe4:	98 b1       	in	r25, 0x08	; 8
    2fe6:	90 63       	ori	r25, 0x30	; 48
    2fe8:	98 b9       	out	0x08, r25	; 8
    2fea:	03 c0       	rjmp	.+6      	; 0x2ff2 <tw_init+0x18>
	}
	else
	{
		PORTC &= ~((1 << TW_SDA_PIN) | (1 << TW_SCL_PIN));
    2fec:	98 b1       	in	r25, 0x08	; 8
    2fee:	9f 7c       	andi	r25, 0xCF	; 207
    2ff0:	98 b9       	out	0x08, r25	; 8
	}
	DDRC  &= ~((1 << TW_SDA_PIN) | (1 << TW_SCL_PIN));
    2ff2:	97 b1       	in	r25, 0x07	; 7
    2ff4:	9f 7c       	andi	r25, 0xCF	; 207
    2ff6:	97 b9       	out	0x07, r25	; 7
	
	switch (twi_freq_mode)
    2ff8:	81 30       	cpi	r24, 0x01	; 1
    2ffa:	41 f0       	breq	.+16     	; 0x300c <tw_init+0x32>
    2ffc:	18 f0       	brcs	.+6      	; 0x3004 <tw_init+0x2a>
    2ffe:	82 30       	cpi	r24, 0x02	; 2
    3000:	49 f0       	breq	.+18     	; 0x3014 <tw_init+0x3a>
    3002:	08 95       	ret
	{
		case TW_FREQ_100K:
		/* Set bit rate register 72 and prescaler to 1 resulting in
		SCL_freq = 16MHz/(16 + 2*72*1) = 100KHz	*/
		TWBR = 72;
    3004:	88 e4       	ldi	r24, 0x48	; 72
    3006:	80 93 b8 00 	sts	0x00B8, r24	; 0x8000b8 <__TEXT_REGION_LENGTH__+0x7f80b8>
		break;
    300a:	08 95       	ret
		
		case TW_FREQ_250K:
		/* Set bit rate register 24 and prescaler to 1 resulting in
		SCL_freq = 16MHz/(16 + 2*24*1) = 250KHz	*/
		TWBR = 24;
    300c:	88 e1       	ldi	r24, 0x18	; 24
    300e:	80 93 b8 00 	sts	0x00B8, r24	; 0x8000b8 <__TEXT_REGION_LENGTH__+0x7f80b8>
		break;
    3012:	08 95       	ret
		
		case TW_FREQ_400K:
		/* Set bit rate register 12 and prescaler to 1 resulting in
		SCL_freq = 16MHz/(16 + 2*12*1) = 400KHz	*/
		TWBR = 12;
    3014:	8c e0       	ldi	r24, 0x0C	; 12
    3016:	80 93 b8 00 	sts	0x00B8, r24	; 0x8000b8 <__TEXT_REGION_LENGTH__+0x7f80b8>
    301a:	08 95       	ret

Disassembly of section .text.tw_master_transmit:

00002c6c <tw_master_transmit>:
	}
}


ret_code_t tw_master_transmit(uint8_t slave_addr, uint8_t* p_data, uint8_t len, bool repeat_start)
{
    2c6c:	ef 92       	push	r14
    2c6e:	ff 92       	push	r15
    2c70:	0f 93       	push	r16
    2c72:	1f 93       	push	r17
    2c74:	cf 93       	push	r28
    2c76:	df 93       	push	r29
    2c78:	c8 2f       	mov	r28, r24
    2c7a:	7b 01       	movw	r14, r22
    2c7c:	14 2f       	mov	r17, r20
    2c7e:	02 2f       	mov	r16, r18
	ret_code_t error_code;
	
	/* Send START condition */
	error_code = tw_start();
    2c80:	0e 94 88 18 	call	0x3110	; 0x3110 <tw_start>
	if (error_code != SUCCESS)
    2c84:	00 97       	sbiw	r24, 0x00	; 0
    2c86:	01 f5       	brne	.+64     	; 0x2cc8 <tw_master_transmit+0x5c>
	{
		return error_code;
	}
	
	/* Send slave address with WRITE flag */
	error_code = tw_write_sla(TW_SLA_W(slave_addr));
    2c88:	8c 2f       	mov	r24, r28
    2c8a:	88 0f       	add	r24, r24
    2c8c:	0e 94 4c 18 	call	0x3098	; 0x3098 <tw_write_sla>
	if (error_code != SUCCESS)
    2c90:	00 97       	sbiw	r24, 0x00	; 0
    2c92:	d1 f4       	brne	.+52     	; 0x2cc8 <tw_master_transmit+0x5c>
    2c94:	c0 e0       	ldi	r28, 0x00	; 0
    2c96:	d0 e0       	ldi	r29, 0x00	; 0
    2c98:	09 c0       	rjmp	.+18     	; 0x2cac <tw_master_transmit+0x40>
	}
	
	/* Send data byte in single or burst mode */
	for (int i = 0; i < len; ++i)
	{
		error_code = tw_write(p_data[i]);
    2c9a:	f7 01       	movw	r30, r14
    2c9c:	ec 0f       	add	r30, r28
    2c9e:	fd 1f       	adc	r31, r29
    2ca0:	80 81       	ld	r24, Z
    2ca2:	0e 94 20 19 	call	0x3240	; 0x3240 <tw_write>
		if (error_code != SUCCESS)
    2ca6:	00 97       	sbiw	r24, 0x00	; 0
    2ca8:	79 f4       	brne	.+30     	; 0x2cc8 <tw_master_transmit+0x5c>
	{
		return error_code;
	}
	
	/* Send data byte in single or burst mode */
	for (int i = 0; i < len; ++i)
    2caa:	21 96       	adiw	r28, 0x01	; 1
    2cac:	81 2f       	mov	r24, r17
    2cae:	90 e0       	ldi	r25, 0x00	; 0
    2cb0:	c8 17       	cp	r28, r24
    2cb2:	d9 07       	cpc	r29, r25
    2cb4:	94 f3       	brlt	.-28     	; 0x2c9a <tw_master_transmit+0x2e>
		{
			return error_code;
		}
	}
	
	if (!repeat_start)
    2cb6:	01 11       	cpse	r16, r1
    2cb8:	05 c0       	rjmp	.+10     	; 0x2cc4 <tw_master_transmit+0x58>
	{
		/* Send STOP condition */
		tw_stop();
    2cba:	0e 94 57 1a 	call	0x34ae	; 0x34ae <tw_stop>
	}
	
	return SUCCESS;
    2cbe:	80 e0       	ldi	r24, 0x00	; 0
    2cc0:	90 e0       	ldi	r25, 0x00	; 0
    2cc2:	02 c0       	rjmp	.+4      	; 0x2cc8 <tw_master_transmit+0x5c>
    2cc4:	80 e0       	ldi	r24, 0x00	; 0
    2cc6:	90 e0       	ldi	r25, 0x00	; 0
}
    2cc8:	df 91       	pop	r29
    2cca:	cf 91       	pop	r28
    2ccc:	1f 91       	pop	r17
    2cce:	0f 91       	pop	r16
    2cd0:	ff 90       	pop	r15
    2cd2:	ef 90       	pop	r14
    2cd4:	08 95       	ret

Disassembly of section .text.tw_master_receive:

00002b0a <tw_master_receive>:


ret_code_t tw_master_receive(uint8_t slave_addr, uint8_t* p_data, uint8_t len)
{
    2b0a:	cf 92       	push	r12
    2b0c:	df 92       	push	r13
    2b0e:	ff 92       	push	r15
    2b10:	0f 93       	push	r16
    2b12:	1f 93       	push	r17
    2b14:	cf 93       	push	r28
    2b16:	df 93       	push	r29
    2b18:	c8 2f       	mov	r28, r24
    2b1a:	8b 01       	movw	r16, r22
    2b1c:	f4 2e       	mov	r15, r20
	ret_code_t error_code;
	
	/* Send START condition */
	error_code = tw_start();
    2b1e:	0e 94 88 18 	call	0x3110	; 0x3110 <tw_start>
    2b22:	9c 01       	movw	r18, r24
	if (error_code != SUCCESS)
    2b24:	00 97       	sbiw	r24, 0x00	; 0
    2b26:	39 f5       	brne	.+78     	; 0x2b76 <tw_master_receive+0x6c>
	{
		return error_code;
	}
	
	/* Write slave address with READ flag */
	error_code = tw_write_sla(TW_SLA_R(slave_addr));
    2b28:	8c 2f       	mov	r24, r28
    2b2a:	90 e0       	ldi	r25, 0x00	; 0
    2b2c:	88 0f       	add	r24, r24
    2b2e:	99 1f       	adc	r25, r25
    2b30:	81 60       	ori	r24, 0x01	; 1
    2b32:	0e 94 4c 18 	call	0x3098	; 0x3098 <tw_write_sla>
	if (error_code != SUCCESS)
    2b36:	00 97       	sbiw	r24, 0x00	; 0
    2b38:	f9 f4       	brne	.+62     	; 0x2b78 <tw_master_receive+0x6e>
    2b3a:	c0 e0       	ldi	r28, 0x00	; 0
    2b3c:	d0 e0       	ldi	r29, 0x00	; 0
    2b3e:	09 c0       	rjmp	.+18     	; 0x2b52 <tw_master_receive+0x48>
	}
	
	/* Read single or multiple data byte and send ack */
	for (int i = 0; i < len-1; ++i)
	{
		p_data[i] = tw_read(TW_READ_ACK);
    2b40:	68 01       	movw	r12, r16
    2b42:	cc 0e       	add	r12, r28
    2b44:	dd 1e       	adc	r13, r29
    2b46:	81 e0       	ldi	r24, 0x01	; 1
    2b48:	0e 94 5e 17 	call	0x2ebc	; 0x2ebc <tw_read>
    2b4c:	f6 01       	movw	r30, r12
    2b4e:	80 83       	st	Z, r24
	{
		return error_code;
	}
	
	/* Read single or multiple data byte and send ack */
	for (int i = 0; i < len-1; ++i)
    2b50:	21 96       	adiw	r28, 0x01	; 1
    2b52:	8f 2d       	mov	r24, r15
    2b54:	90 e0       	ldi	r25, 0x00	; 0
    2b56:	01 97       	sbiw	r24, 0x01	; 1
    2b58:	c8 17       	cp	r28, r24
    2b5a:	d9 07       	cpc	r29, r25
    2b5c:	8c f3       	brlt	.-30     	; 0x2b40 <tw_master_receive+0x36>
	{
		p_data[i] = tw_read(TW_READ_ACK);
	}
	p_data[len-1] = tw_read(TW_READ_NACK);
    2b5e:	ec 01       	movw	r28, r24
    2b60:	c0 0f       	add	r28, r16
    2b62:	d1 1f       	adc	r29, r17
    2b64:	80 e0       	ldi	r24, 0x00	; 0
    2b66:	0e 94 5e 17 	call	0x2ebc	; 0x2ebc <tw_read>
    2b6a:	88 83       	st	Y, r24
	
	/* Send STOP condition */
	tw_stop();
    2b6c:	0e 94 57 1a 	call	0x34ae	; 0x34ae <tw_stop>
	
	return SUCCESS;
    2b70:	80 e0       	ldi	r24, 0x00	; 0
    2b72:	90 e0       	ldi	r25, 0x00	; 0
    2b74:	01 c0       	rjmp	.+2      	; 0x2b78 <tw_master_receive+0x6e>
	
	/* Send START condition */
	error_code = tw_start();
	if (error_code != SUCCESS)
	{
		return error_code;
    2b76:	93 2f       	mov	r25, r19
	
	/* Send STOP condition */
	tw_stop();
	
	return SUCCESS;
    2b78:	df 91       	pop	r29
    2b7a:	cf 91       	pop	r28
    2b7c:	1f 91       	pop	r17
    2b7e:	0f 91       	pop	r16
    2b80:	ff 90       	pop	r15
    2b82:	df 90       	pop	r13
    2b84:	cf 90       	pop	r12
    2b86:	08 95       	ret

Disassembly of section .text.absolute:

00003464 <absolute>:
#include "BH1750.h"
//****main.c****//
#include "lcd.h"
short absolute(short n)
{
	if(n<0)
    3464:	99 23       	and	r25, r25
    3466:	1c f4       	brge	.+6      	; 0x346e <absolute+0xa>
	{
		return -n;
    3468:	91 95       	neg	r25
    346a:	81 95       	neg	r24
    346c:	91 09       	sbc	r25, r1
	}
	else
	{
		return n;
	}
}
    346e:	08 95       	ret

Disassembly of section .text.DislpayInterface:

00002172 <DislpayInterface>:
void DislpayInterface(int mode)
{
	switch(mode)
    2172:	81 30       	cpi	r24, 0x01	; 1
    2174:	91 05       	cpc	r25, r1
    2176:	61 f1       	breq	.+88     	; 0x21d0 <DislpayInterface+0x5e>
    2178:	82 30       	cpi	r24, 0x02	; 2
    217a:	91 05       	cpc	r25, r1
    217c:	09 f4       	brne	.+2      	; 0x2180 <DislpayInterface+0xe>
    217e:	4d c0       	rjmp	.+154    	; 0x221a <DislpayInterface+0xa8>
    2180:	89 2b       	or	r24, r25
    2182:	09 f0       	breq	.+2      	; 0x2186 <DislpayInterface+0x14>
    2184:	6e c0       	rjmp	.+220    	; 0x2262 <DislpayInterface+0xf0>
	{
		case 0:
		lcd_gotoxy(0,0);
    2186:	60 e0       	ldi	r22, 0x00	; 0
    2188:	80 e0       	ldi	r24, 0x00	; 0
    218a:	0e 94 ff 19 	call	0x33fe	; 0x33fe <lcd_gotoxy>
		lcd_puts(">ISO|");
    218e:	6e e7       	ldi	r22, 0x7E	; 126
    2190:	73 e0       	ldi	r23, 0x03	; 3
    2192:	80 e0       	ldi	r24, 0x00	; 0
    2194:	0e 94 0a 19 	call	0x3214	; 0x3214 <lcd_puts>
		lcd_gotoxy(0,2);
    2198:	62 e0       	ldi	r22, 0x02	; 2
    219a:	80 e0       	ldi	r24, 0x00	; 0
    219c:	0e 94 ff 19 	call	0x33fe	; 0x33fe <lcd_gotoxy>
		lcd_puts("   A|");
    21a0:	64 e8       	ldi	r22, 0x84	; 132
    21a2:	73 e0       	ldi	r23, 0x03	; 3
    21a4:	80 e0       	ldi	r24, 0x00	; 0
    21a6:	0e 94 0a 19 	call	0x3214	; 0x3214 <lcd_puts>
		lcd_gotoxy(0,4);
    21aa:	64 e0       	ldi	r22, 0x04	; 4
    21ac:	80 e0       	ldi	r24, 0x00	; 0
    21ae:	0e 94 ff 19 	call	0x33fe	; 0x33fe <lcd_gotoxy>
		lcd_puts("   T|");
    21b2:	6a e8       	ldi	r22, 0x8A	; 138
    21b4:	73 e0       	ldi	r23, 0x03	; 3
    21b6:	80 e0       	ldi	r24, 0x00	; 0
    21b8:	0e 94 0a 19 	call	0x3214	; 0x3214 <lcd_puts>
		lcd_gotoxy(0,7);
    21bc:	67 e0       	ldi	r22, 0x07	; 7
    21be:	80 e0       	ldi	r24, 0x00	; 0
    21c0:	0e 94 ff 19 	call	0x33fe	; 0x33fe <lcd_gotoxy>
		lcd_puts(" LUX|");
    21c4:	60 e9       	ldi	r22, 0x90	; 144
    21c6:	73 e0       	ldi	r23, 0x03	; 3
    21c8:	80 e0       	ldi	r24, 0x00	; 0
    21ca:	0e 94 0a 19 	call	0x3214	; 0x3214 <lcd_puts>
		break;
    21ce:	08 95       	ret
	
		case 1:

		lcd_gotoxy(0,0);
    21d0:	60 e0       	ldi	r22, 0x00	; 0
    21d2:	80 e0       	ldi	r24, 0x00	; 0
    21d4:	0e 94 ff 19 	call	0x33fe	; 0x33fe <lcd_gotoxy>
		lcd_puts(" ISO|");
    21d8:	66 e9       	ldi	r22, 0x96	; 150
    21da:	73 e0       	ldi	r23, 0x03	; 3
    21dc:	80 e0       	ldi	r24, 0x00	; 0
    21de:	0e 94 0a 19 	call	0x3214	; 0x3214 <lcd_puts>
		lcd_gotoxy(0,2);
    21e2:	62 e0       	ldi	r22, 0x02	; 2
    21e4:	80 e0       	ldi	r24, 0x00	; 0
    21e6:	0e 94 ff 19 	call	0x33fe	; 0x33fe <lcd_gotoxy>
		lcd_puts(">  A|");
    21ea:	6c e9       	ldi	r22, 0x9C	; 156
    21ec:	73 e0       	ldi	r23, 0x03	; 3
    21ee:	80 e0       	ldi	r24, 0x00	; 0
    21f0:	0e 94 0a 19 	call	0x3214	; 0x3214 <lcd_puts>
		lcd_gotoxy(0,4);
    21f4:	64 e0       	ldi	r22, 0x04	; 4
    21f6:	80 e0       	ldi	r24, 0x00	; 0
    21f8:	0e 94 ff 19 	call	0x33fe	; 0x33fe <lcd_gotoxy>
		lcd_puts("   T|");
    21fc:	6a e8       	ldi	r22, 0x8A	; 138
    21fe:	73 e0       	ldi	r23, 0x03	; 3
    2200:	80 e0       	ldi	r24, 0x00	; 0
    2202:	0e 94 0a 19 	call	0x3214	; 0x3214 <lcd_puts>
		lcd_gotoxy(0,7);
    2206:	67 e0       	ldi	r22, 0x07	; 7
    2208:	80 e0       	ldi	r24, 0x00	; 0
    220a:	0e 94 ff 19 	call	0x33fe	; 0x33fe <lcd_gotoxy>
		lcd_puts(" LUX|");
    220e:	60 e9       	ldi	r22, 0x90	; 144
    2210:	73 e0       	ldi	r23, 0x03	; 3
    2212:	80 e0       	ldi	r24, 0x00	; 0
    2214:	0e 94 0a 19 	call	0x3214	; 0x3214 <lcd_puts>
		break;	
    2218:	08 95       	ret
		case 2:
		lcd_gotoxy(0,0);
    221a:	60 e0       	ldi	r22, 0x00	; 0
    221c:	80 e0       	ldi	r24, 0x00	; 0
    221e:	0e 94 ff 19 	call	0x33fe	; 0x33fe <lcd_gotoxy>
		lcd_puts(" ISO|");
    2222:	66 e9       	ldi	r22, 0x96	; 150
    2224:	73 e0       	ldi	r23, 0x03	; 3
    2226:	80 e0       	ldi	r24, 0x00	; 0
    2228:	0e 94 0a 19 	call	0x3214	; 0x3214 <lcd_puts>
		lcd_gotoxy(0,2);
    222c:	62 e0       	ldi	r22, 0x02	; 2
    222e:	80 e0       	ldi	r24, 0x00	; 0
    2230:	0e 94 ff 19 	call	0x33fe	; 0x33fe <lcd_gotoxy>
		lcd_puts("   A|");
    2234:	64 e8       	ldi	r22, 0x84	; 132
    2236:	73 e0       	ldi	r23, 0x03	; 3
    2238:	80 e0       	ldi	r24, 0x00	; 0
    223a:	0e 94 0a 19 	call	0x3214	; 0x3214 <lcd_puts>
		lcd_gotoxy(0,4);
    223e:	64 e0       	ldi	r22, 0x04	; 4
    2240:	80 e0       	ldi	r24, 0x00	; 0
    2242:	0e 94 ff 19 	call	0x33fe	; 0x33fe <lcd_gotoxy>
		lcd_puts(">  T|");
    2246:	62 ea       	ldi	r22, 0xA2	; 162
    2248:	73 e0       	ldi	r23, 0x03	; 3
    224a:	80 e0       	ldi	r24, 0x00	; 0
    224c:	0e 94 0a 19 	call	0x3214	; 0x3214 <lcd_puts>
		lcd_gotoxy(0,7);
    2250:	67 e0       	ldi	r22, 0x07	; 7
    2252:	80 e0       	ldi	r24, 0x00	; 0
    2254:	0e 94 ff 19 	call	0x33fe	; 0x33fe <lcd_gotoxy>
		lcd_puts(" LUX|");
    2258:	60 e9       	ldi	r22, 0x90	; 144
    225a:	73 e0       	ldi	r23, 0x03	; 3
    225c:	80 e0       	ldi	r24, 0x00	; 0
    225e:	0e 94 0a 19 	call	0x3214	; 0x3214 <lcd_puts>
    2262:	08 95       	ret

Disassembly of section .text.displayA:

00002264 <displayA>:
	}
};
//float apaturetab[9]={22.0,16.0,11.0,8.0,5.6,4.0,2.8,2.0,1.4};
void displayA(short A)
{
	switch(A)
    2264:	89 30       	cpi	r24, 0x09	; 9
    2266:	91 05       	cpc	r25, r1
    2268:	08 f0       	brcs	.+2      	; 0x226c <displayA+0x8>
    226a:	5f c0       	rjmp	.+190    	; 0x232a <displayA+0xc6>
    226c:	fc 01       	movw	r30, r24
    226e:	ec 5c       	subi	r30, 0xCC	; 204
    2270:	ff 4f       	sbci	r31, 0xFF	; 255
    2272:	0c 94 3e 1a 	jmp	0x347c	; 0x347c <__tablejump2__>
	{
		case 0:
		lcd_gotoxy(11,2);
    2276:	62 e0       	ldi	r22, 0x02	; 2
    2278:	8b e0       	ldi	r24, 0x0B	; 11
    227a:	0e 94 ff 19 	call	0x33fe	; 0x33fe <lcd_gotoxy>
		lcd_puts("22.0");
    227e:	68 ea       	ldi	r22, 0xA8	; 168
    2280:	73 e0       	ldi	r23, 0x03	; 3
    2282:	80 e0       	ldi	r24, 0x00	; 0
    2284:	0e 94 0a 19 	call	0x3214	; 0x3214 <lcd_puts>
		break;
    2288:	08 95       	ret
		case 1:
		lcd_gotoxy(11,2);
    228a:	62 e0       	ldi	r22, 0x02	; 2
    228c:	8b e0       	ldi	r24, 0x0B	; 11
    228e:	0e 94 ff 19 	call	0x33fe	; 0x33fe <lcd_gotoxy>
		lcd_puts("16.0");
    2292:	6d ea       	ldi	r22, 0xAD	; 173
    2294:	73 e0       	ldi	r23, 0x03	; 3
    2296:	80 e0       	ldi	r24, 0x00	; 0
    2298:	0e 94 0a 19 	call	0x3214	; 0x3214 <lcd_puts>
		break;
    229c:	08 95       	ret
		case 2:
		lcd_gotoxy(11,2);
    229e:	62 e0       	ldi	r22, 0x02	; 2
    22a0:	8b e0       	ldi	r24, 0x0B	; 11
    22a2:	0e 94 ff 19 	call	0x33fe	; 0x33fe <lcd_gotoxy>
		lcd_puts("11.0");
    22a6:	62 eb       	ldi	r22, 0xB2	; 178
    22a8:	73 e0       	ldi	r23, 0x03	; 3
    22aa:	80 e0       	ldi	r24, 0x00	; 0
    22ac:	0e 94 0a 19 	call	0x3214	; 0x3214 <lcd_puts>
		break;
    22b0:	08 95       	ret
		case 3:
		lcd_gotoxy(11,2);
    22b2:	62 e0       	ldi	r22, 0x02	; 2
    22b4:	8b e0       	ldi	r24, 0x0B	; 11
    22b6:	0e 94 ff 19 	call	0x33fe	; 0x33fe <lcd_gotoxy>
		lcd_puts("8.0 ");
    22ba:	67 eb       	ldi	r22, 0xB7	; 183
    22bc:	73 e0       	ldi	r23, 0x03	; 3
    22be:	80 e0       	ldi	r24, 0x00	; 0
    22c0:	0e 94 0a 19 	call	0x3214	; 0x3214 <lcd_puts>
		break;
    22c4:	08 95       	ret
		case 4:
		lcd_gotoxy(11,2);
    22c6:	62 e0       	ldi	r22, 0x02	; 2
    22c8:	8b e0       	ldi	r24, 0x0B	; 11
    22ca:	0e 94 ff 19 	call	0x33fe	; 0x33fe <lcd_gotoxy>
		lcd_puts("5.6 ");
    22ce:	6c eb       	ldi	r22, 0xBC	; 188
    22d0:	73 e0       	ldi	r23, 0x03	; 3
    22d2:	80 e0       	ldi	r24, 0x00	; 0
    22d4:	0e 94 0a 19 	call	0x3214	; 0x3214 <lcd_puts>
		break;
    22d8:	08 95       	ret
		case 5:
		lcd_gotoxy(11,2);
    22da:	62 e0       	ldi	r22, 0x02	; 2
    22dc:	8b e0       	ldi	r24, 0x0B	; 11
    22de:	0e 94 ff 19 	call	0x33fe	; 0x33fe <lcd_gotoxy>
		lcd_puts("4.0 ");
    22e2:	61 ec       	ldi	r22, 0xC1	; 193
    22e4:	73 e0       	ldi	r23, 0x03	; 3
    22e6:	80 e0       	ldi	r24, 0x00	; 0
    22e8:	0e 94 0a 19 	call	0x3214	; 0x3214 <lcd_puts>
		break;
    22ec:	08 95       	ret
		case 6:
		lcd_gotoxy(11,2);
    22ee:	62 e0       	ldi	r22, 0x02	; 2
    22f0:	8b e0       	ldi	r24, 0x0B	; 11
    22f2:	0e 94 ff 19 	call	0x33fe	; 0x33fe <lcd_gotoxy>
		lcd_puts("2.8 ");
    22f6:	66 ec       	ldi	r22, 0xC6	; 198
    22f8:	73 e0       	ldi	r23, 0x03	; 3
    22fa:	80 e0       	ldi	r24, 0x00	; 0
    22fc:	0e 94 0a 19 	call	0x3214	; 0x3214 <lcd_puts>
		break;
    2300:	08 95       	ret
		case 7:
		lcd_gotoxy(11,2);
    2302:	62 e0       	ldi	r22, 0x02	; 2
    2304:	8b e0       	ldi	r24, 0x0B	; 11
    2306:	0e 94 ff 19 	call	0x33fe	; 0x33fe <lcd_gotoxy>
		lcd_puts("2.0 ");
    230a:	6b ec       	ldi	r22, 0xCB	; 203
    230c:	73 e0       	ldi	r23, 0x03	; 3
    230e:	80 e0       	ldi	r24, 0x00	; 0
    2310:	0e 94 0a 19 	call	0x3214	; 0x3214 <lcd_puts>
		break;
    2314:	08 95       	ret
		case 8:
		lcd_gotoxy(11,2);
    2316:	62 e0       	ldi	r22, 0x02	; 2
    2318:	8b e0       	ldi	r24, 0x0B	; 11
    231a:	0e 94 ff 19 	call	0x33fe	; 0x33fe <lcd_gotoxy>
		lcd_puts("1.4 ");
    231e:	60 ed       	ldi	r22, 0xD0	; 208
    2320:	73 e0       	ldi	r23, 0x03	; 3
    2322:	80 e0       	ldi	r24, 0x00	; 0
    2324:	0e 94 0a 19 	call	0x3214	; 0x3214 <lcd_puts>
		break;
    2328:	08 95       	ret
		default:
		if(A>8)
    232a:	09 97       	sbiw	r24, 0x09	; 9
    232c:	54 f0       	brlt	.+20     	; 0x2342 <displayA+0xde>
		{
			lcd_gotoxy(11,2);
    232e:	62 e0       	ldi	r22, 0x02	; 2
    2330:	8b e0       	ldi	r24, 0x0B	; 11
    2332:	0e 94 ff 19 	call	0x33fe	; 0x33fe <lcd_gotoxy>
			lcd_puts("1.4 ");		
    2336:	60 ed       	ldi	r22, 0xD0	; 208
    2338:	73 e0       	ldi	r23, 0x03	; 3
    233a:	80 e0       	ldi	r24, 0x00	; 0
    233c:	0e 94 0a 19 	call	0x3214	; 0x3214 <lcd_puts>
    2340:	08 95       	ret
		}
		else
		{
			lcd_gotoxy(11,2);
    2342:	62 e0       	ldi	r22, 0x02	; 2
    2344:	8b e0       	ldi	r24, 0x0B	; 11
    2346:	0e 94 ff 19 	call	0x33fe	; 0x33fe <lcd_gotoxy>
			lcd_puts("22.0");
    234a:	68 ea       	ldi	r22, 0xA8	; 168
    234c:	73 e0       	ldi	r23, 0x03	; 3
    234e:	80 e0       	ldi	r24, 0x00	; 0
    2350:	0e 94 0a 19 	call	0x3214	; 0x3214 <lcd_puts>
    2354:	08 95       	ret

Disassembly of section .text.displayT:

00001f4a <displayT>:
	}
}
//short timetab[10]={2,4,8,15,30,60,125,250,500,1000};
void displayT(short T)
{
	switch(T)
    1f4a:	8b 30       	cpi	r24, 0x0B	; 11
    1f4c:	91 05       	cpc	r25, r1
    1f4e:	08 f0       	brcs	.+2      	; 0x1f52 <displayT+0x8>
    1f50:	73 c0       	rjmp	.+230    	; 0x2038 <displayT+0xee>
    1f52:	fc 01       	movw	r30, r24
    1f54:	e3 5c       	subi	r30, 0xC3	; 195
    1f56:	ff 4f       	sbci	r31, 0xFF	; 255
    1f58:	0c 94 3e 1a 	jmp	0x347c	; 0x347c <__tablejump2__>
	{
		case 0:
		lcd_gotoxy(11,4);
    1f5c:	64 e0       	ldi	r22, 0x04	; 4
    1f5e:	8b e0       	ldi	r24, 0x0B	; 11
    1f60:	0e 94 ff 19 	call	0x33fe	; 0x33fe <lcd_gotoxy>
		lcd_puts("1/2    ");
    1f64:	65 ed       	ldi	r22, 0xD5	; 213
    1f66:	73 e0       	ldi	r23, 0x03	; 3
    1f68:	80 e0       	ldi	r24, 0x00	; 0
    1f6a:	0e 94 0a 19 	call	0x3214	; 0x3214 <lcd_puts>
		break;
    1f6e:	08 95       	ret
		case 1:
		lcd_gotoxy(11,4);
    1f70:	64 e0       	ldi	r22, 0x04	; 4
    1f72:	8b e0       	ldi	r24, 0x0B	; 11
    1f74:	0e 94 ff 19 	call	0x33fe	; 0x33fe <lcd_gotoxy>
		lcd_puts("1/4    ");
    1f78:	6d ed       	ldi	r22, 0xDD	; 221
    1f7a:	73 e0       	ldi	r23, 0x03	; 3
    1f7c:	80 e0       	ldi	r24, 0x00	; 0
    1f7e:	0e 94 0a 19 	call	0x3214	; 0x3214 <lcd_puts>
		break;
    1f82:	08 95       	ret
		case 2:
		lcd_gotoxy(11,4);
    1f84:	64 e0       	ldi	r22, 0x04	; 4
    1f86:	8b e0       	ldi	r24, 0x0B	; 11
    1f88:	0e 94 ff 19 	call	0x33fe	; 0x33fe <lcd_gotoxy>
		lcd_puts("1/8    ");
    1f8c:	65 ee       	ldi	r22, 0xE5	; 229
    1f8e:	73 e0       	ldi	r23, 0x03	; 3
    1f90:	80 e0       	ldi	r24, 0x00	; 0
    1f92:	0e 94 0a 19 	call	0x3214	; 0x3214 <lcd_puts>
		break;
    1f96:	08 95       	ret
		case 3:
		lcd_gotoxy(11,4);
    1f98:	64 e0       	ldi	r22, 0x04	; 4
    1f9a:	8b e0       	ldi	r24, 0x0B	; 11
    1f9c:	0e 94 ff 19 	call	0x33fe	; 0x33fe <lcd_gotoxy>
		lcd_puts("1/15   ");
    1fa0:	6d ee       	ldi	r22, 0xED	; 237
    1fa2:	73 e0       	ldi	r23, 0x03	; 3
    1fa4:	80 e0       	ldi	r24, 0x00	; 0
    1fa6:	0e 94 0a 19 	call	0x3214	; 0x3214 <lcd_puts>
		break;
    1faa:	08 95       	ret
		case 4:
		lcd_gotoxy(11,4);
    1fac:	64 e0       	ldi	r22, 0x04	; 4
    1fae:	8b e0       	ldi	r24, 0x0B	; 11
    1fb0:	0e 94 ff 19 	call	0x33fe	; 0x33fe <lcd_gotoxy>
		lcd_puts("1/30   ");
    1fb4:	65 ef       	ldi	r22, 0xF5	; 245
    1fb6:	73 e0       	ldi	r23, 0x03	; 3
    1fb8:	80 e0       	ldi	r24, 0x00	; 0
    1fba:	0e 94 0a 19 	call	0x3214	; 0x3214 <lcd_puts>
		break;
    1fbe:	08 95       	ret
		case 5:
		lcd_gotoxy(11,4);
    1fc0:	64 e0       	ldi	r22, 0x04	; 4
    1fc2:	8b e0       	ldi	r24, 0x0B	; 11
    1fc4:	0e 94 ff 19 	call	0x33fe	; 0x33fe <lcd_gotoxy>
		lcd_puts("1/60   ");
    1fc8:	6d ef       	ldi	r22, 0xFD	; 253
    1fca:	73 e0       	ldi	r23, 0x03	; 3
    1fcc:	80 e0       	ldi	r24, 0x00	; 0
    1fce:	0e 94 0a 19 	call	0x3214	; 0x3214 <lcd_puts>
		break;
    1fd2:	08 95       	ret
		case 6:
		lcd_gotoxy(11,4);
    1fd4:	64 e0       	ldi	r22, 0x04	; 4
    1fd6:	8b e0       	ldi	r24, 0x0B	; 11
    1fd8:	0e 94 ff 19 	call	0x33fe	; 0x33fe <lcd_gotoxy>
		lcd_puts("1/125  ");
    1fdc:	65 e0       	ldi	r22, 0x05	; 5
    1fde:	74 e0       	ldi	r23, 0x04	; 4
    1fe0:	80 e0       	ldi	r24, 0x00	; 0
    1fe2:	0e 94 0a 19 	call	0x3214	; 0x3214 <lcd_puts>
		break;
    1fe6:	08 95       	ret
		case 7:
		lcd_gotoxy(11,4);
    1fe8:	64 e0       	ldi	r22, 0x04	; 4
    1fea:	8b e0       	ldi	r24, 0x0B	; 11
    1fec:	0e 94 ff 19 	call	0x33fe	; 0x33fe <lcd_gotoxy>
		lcd_puts("1/250  ");
    1ff0:	6d e0       	ldi	r22, 0x0D	; 13
    1ff2:	74 e0       	ldi	r23, 0x04	; 4
    1ff4:	80 e0       	ldi	r24, 0x00	; 0
    1ff6:	0e 94 0a 19 	call	0x3214	; 0x3214 <lcd_puts>
		break;
    1ffa:	08 95       	ret
		case 8:
		lcd_gotoxy(11,4);
    1ffc:	64 e0       	ldi	r22, 0x04	; 4
    1ffe:	8b e0       	ldi	r24, 0x0B	; 11
    2000:	0e 94 ff 19 	call	0x33fe	; 0x33fe <lcd_gotoxy>
		lcd_puts("1/500  ");
    2004:	65 e1       	ldi	r22, 0x15	; 21
    2006:	74 e0       	ldi	r23, 0x04	; 4
    2008:	80 e0       	ldi	r24, 0x00	; 0
    200a:	0e 94 0a 19 	call	0x3214	; 0x3214 <lcd_puts>
		break;
    200e:	08 95       	ret
		case 9:
		lcd_gotoxy(11,4);
    2010:	64 e0       	ldi	r22, 0x04	; 4
    2012:	8b e0       	ldi	r24, 0x0B	; 11
    2014:	0e 94 ff 19 	call	0x33fe	; 0x33fe <lcd_gotoxy>
		lcd_puts("1/1000 ");
    2018:	6d e1       	ldi	r22, 0x1D	; 29
    201a:	74 e0       	ldi	r23, 0x04	; 4
    201c:	80 e0       	ldi	r24, 0x00	; 0
    201e:	0e 94 0a 19 	call	0x3214	; 0x3214 <lcd_puts>
		break;
    2022:	08 95       	ret
		case 10:
		lcd_gotoxy(11,4);
    2024:	64 e0       	ldi	r22, 0x04	; 4
    2026:	8b e0       	ldi	r24, 0x0B	; 11
    2028:	0e 94 ff 19 	call	0x33fe	; 0x33fe <lcd_gotoxy>
		lcd_puts("1/2000 ");
    202c:	65 e2       	ldi	r22, 0x25	; 37
    202e:	74 e0       	ldi	r23, 0x04	; 4
    2030:	80 e0       	ldi	r24, 0x00	; 0
    2032:	0e 94 0a 19 	call	0x3214	; 0x3214 <lcd_puts>
		break;
    2036:	08 95       	ret
		default:
		if(T>10)
    2038:	0b 97       	sbiw	r24, 0x0b	; 11
    203a:	54 f0       	brlt	.+20     	; 0x2050 <displayT+0x106>
		{
			lcd_gotoxy(11,4);
    203c:	64 e0       	ldi	r22, 0x04	; 4
    203e:	8b e0       	ldi	r24, 0x0B	; 11
    2040:	0e 94 ff 19 	call	0x33fe	; 0x33fe <lcd_gotoxy>
			lcd_puts("1/2000 ");
    2044:	65 e2       	ldi	r22, 0x25	; 37
    2046:	74 e0       	ldi	r23, 0x04	; 4
    2048:	80 e0       	ldi	r24, 0x00	; 0
    204a:	0e 94 0a 19 	call	0x3214	; 0x3214 <lcd_puts>
    204e:	08 95       	ret
		}
		else
		{
			lcd_gotoxy(11,4);
    2050:	64 e0       	ldi	r22, 0x04	; 4
    2052:	8b e0       	ldi	r24, 0x0B	; 11
    2054:	0e 94 ff 19 	call	0x33fe	; 0x33fe <lcd_gotoxy>
			lcd_puts("1/2    ");
    2058:	65 ed       	ldi	r22, 0xD5	; 213
    205a:	73 e0       	ldi	r23, 0x03	; 3
    205c:	80 e0       	ldi	r24, 0x00	; 0
    205e:	0e 94 0a 19 	call	0x3214	; 0x3214 <lcd_puts>
    2062:	08 95       	ret

Disassembly of section .text.displayISO:

00002950 <displayISO>:
}

//short isotab[6]={1600,800,400,200,100,50};
void displayISO(short ISO)
{
	switch(ISO)
    2950:	82 30       	cpi	r24, 0x02	; 2
    2952:	91 05       	cpc	r25, r1
    2954:	09 f1       	breq	.+66     	; 0x2998 <displayISO+0x48>
    2956:	2c f4       	brge	.+10     	; 0x2962 <displayISO+0x12>
    2958:	00 97       	sbiw	r24, 0x00	; 0
    295a:	51 f0       	breq	.+20     	; 0x2970 <displayISO+0x20>
    295c:	01 97       	sbiw	r24, 0x01	; 1
    295e:	91 f0       	breq	.+36     	; 0x2984 <displayISO+0x34>
    2960:	08 95       	ret
    2962:	84 30       	cpi	r24, 0x04	; 4
    2964:	91 05       	cpc	r25, r1
    2966:	61 f1       	breq	.+88     	; 0x29c0 <displayISO+0x70>
    2968:	0c f1       	brlt	.+66     	; 0x29ac <displayISO+0x5c>
    296a:	05 97       	sbiw	r24, 0x05	; 5
    296c:	99 f1       	breq	.+102    	; 0x29d4 <displayISO+0x84>
    296e:	08 95       	ret
	{
		case 0:
		lcd_gotoxy(11,0);
    2970:	60 e0       	ldi	r22, 0x00	; 0
    2972:	8b e0       	ldi	r24, 0x0B	; 11
    2974:	0e 94 ff 19 	call	0x33fe	; 0x33fe <lcd_gotoxy>
		lcd_puts("1600");
    2978:	6d e2       	ldi	r22, 0x2D	; 45
    297a:	74 e0       	ldi	r23, 0x04	; 4
    297c:	80 e0       	ldi	r24, 0x00	; 0
    297e:	0e 94 0a 19 	call	0x3214	; 0x3214 <lcd_puts>
		break;
    2982:	08 95       	ret
		case 1:
		lcd_gotoxy(11,0);
    2984:	60 e0       	ldi	r22, 0x00	; 0
    2986:	8b e0       	ldi	r24, 0x0B	; 11
    2988:	0e 94 ff 19 	call	0x33fe	; 0x33fe <lcd_gotoxy>
		lcd_puts("800 ");
    298c:	62 e3       	ldi	r22, 0x32	; 50
    298e:	74 e0       	ldi	r23, 0x04	; 4
    2990:	80 e0       	ldi	r24, 0x00	; 0
    2992:	0e 94 0a 19 	call	0x3214	; 0x3214 <lcd_puts>
		break;
    2996:	08 95       	ret
		case 2:
		lcd_gotoxy(11,0);
    2998:	60 e0       	ldi	r22, 0x00	; 0
    299a:	8b e0       	ldi	r24, 0x0B	; 11
    299c:	0e 94 ff 19 	call	0x33fe	; 0x33fe <lcd_gotoxy>
		lcd_puts("400 ");
    29a0:	67 e3       	ldi	r22, 0x37	; 55
    29a2:	74 e0       	ldi	r23, 0x04	; 4
    29a4:	80 e0       	ldi	r24, 0x00	; 0
    29a6:	0e 94 0a 19 	call	0x3214	; 0x3214 <lcd_puts>
		break;
    29aa:	08 95       	ret
		case 3:
		lcd_gotoxy(11,0);
    29ac:	60 e0       	ldi	r22, 0x00	; 0
    29ae:	8b e0       	ldi	r24, 0x0B	; 11
    29b0:	0e 94 ff 19 	call	0x33fe	; 0x33fe <lcd_gotoxy>
		lcd_puts("200 ");
    29b4:	6c e3       	ldi	r22, 0x3C	; 60
    29b6:	74 e0       	ldi	r23, 0x04	; 4
    29b8:	80 e0       	ldi	r24, 0x00	; 0
    29ba:	0e 94 0a 19 	call	0x3214	; 0x3214 <lcd_puts>
		break;
    29be:	08 95       	ret
		case 4:
		lcd_gotoxy(11,0);
    29c0:	60 e0       	ldi	r22, 0x00	; 0
    29c2:	8b e0       	ldi	r24, 0x0B	; 11
    29c4:	0e 94 ff 19 	call	0x33fe	; 0x33fe <lcd_gotoxy>
		lcd_puts("100 ");
    29c8:	61 e4       	ldi	r22, 0x41	; 65
    29ca:	74 e0       	ldi	r23, 0x04	; 4
    29cc:	80 e0       	ldi	r24, 0x00	; 0
    29ce:	0e 94 0a 19 	call	0x3214	; 0x3214 <lcd_puts>
		break;
    29d2:	08 95       	ret
		case 5:
		lcd_gotoxy(11,0);
    29d4:	60 e0       	ldi	r22, 0x00	; 0
    29d6:	8b e0       	ldi	r24, 0x0B	; 11
    29d8:	0e 94 ff 19 	call	0x33fe	; 0x33fe <lcd_gotoxy>
		lcd_puts("50  ");
    29dc:	66 e4       	ldi	r22, 0x46	; 70
    29de:	74 e0       	ldi	r23, 0x04	; 4
    29e0:	80 e0       	ldi	r24, 0x00	; 0
    29e2:	0e 94 0a 19 	call	0x3214	; 0x3214 <lcd_puts>
    29e6:	08 95       	ret

Disassembly of section .text.ReadEncoder:

000026ae <ReadEncoder>:
	static int8_t last;
	static uint8_t laststate;
	static uint8_t counters[2];	//Tablica zawierajca liczniki
	int8_t newpos, diff;
	
	uint8_t state=PINB;
    26ae:	83 b1       	in	r24, 0x03	; 3
	if(((state^laststate) & _BV(PIND4)) && (counters[0]==0))
    26b0:	90 91 28 01 	lds	r25, 0x0128	; 0x800128 <laststate.2461>
    26b4:	28 2f       	mov	r18, r24
    26b6:	29 27       	eor	r18, r25
    26b8:	24 ff       	sbrs	r18, 4
    26ba:	0d c0       	rjmp	.+26     	; 0x26d6 <ReadEncoder+0x28>
    26bc:	20 91 24 01 	lds	r18, 0x0124	; 0x800124 <counters.2462>
    26c0:	21 11       	cpse	r18, r1
    26c2:	09 c0       	rjmp	.+18     	; 0x26d6 <ReadEncoder+0x28>
	{
		counters[0]=200;
    26c4:	28 ec       	ldi	r18, 0xC8	; 200
    26c6:	20 93 24 01 	sts	0x0124, r18	; 0x800124 <counters.2462>
		laststate&=(~_BV(PIND4));
    26ca:	9f 7e       	andi	r25, 0xEF	; 239
		laststate|=(state & _BV(PIND4));
    26cc:	28 2f       	mov	r18, r24
    26ce:	20 71       	andi	r18, 0x10	; 16
    26d0:	92 2b       	or	r25, r18
    26d2:	90 93 28 01 	sts	0x0128, r25	; 0x800128 <laststate.2461>
	}

	if(((state^laststate) & _BV(PIND5)) && (counters[1]==0))
    26d6:	90 91 28 01 	lds	r25, 0x0128	; 0x800128 <laststate.2461>
    26da:	28 2f       	mov	r18, r24
    26dc:	29 27       	eor	r18, r25
    26de:	25 ff       	sbrs	r18, 5
    26e0:	0c c0       	rjmp	.+24     	; 0x26fa <ReadEncoder+0x4c>
    26e2:	20 91 25 01 	lds	r18, 0x0125	; 0x800125 <counters.2462+0x1>
    26e6:	21 11       	cpse	r18, r1
    26e8:	08 c0       	rjmp	.+16     	; 0x26fa <ReadEncoder+0x4c>
	{
		counters[1]=200;
    26ea:	28 ec       	ldi	r18, 0xC8	; 200
    26ec:	20 93 25 01 	sts	0x0125, r18	; 0x800125 <counters.2462+0x1>
		laststate&=(~_BV(PIND5));
    26f0:	9f 7d       	andi	r25, 0xDF	; 223
		laststate|=(state & _BV(PIND5));
    26f2:	80 72       	andi	r24, 0x20	; 32
    26f4:	89 2b       	or	r24, r25
    26f6:	80 93 28 01 	sts	0x0128, r24	; 0x800128 <laststate.2461>
	uint8_t przerwa=0;
	for(uint8_t c=0;c<2;c++)
	if(counters[c])
	{
		counters[c]--;
		przerwa=1;			//Robimy opnienie tylko jeli ktry z licznikw by !=0
    26fa:	80 e0       	ldi	r24, 0x00	; 0
    26fc:	40 e0       	ldi	r20, 0x00	; 0
    26fe:	0f c0       	rjmp	.+30     	; 0x271e <ReadEncoder+0x70>
		laststate|=(state & _BV(PIND5));
	}

	uint8_t przerwa=0;
	for(uint8_t c=0;c<2;c++)
	if(counters[c])
    2700:	28 2f       	mov	r18, r24
    2702:	30 e0       	ldi	r19, 0x00	; 0
    2704:	f9 01       	movw	r30, r18
    2706:	ec 5d       	subi	r30, 0xDC	; 220
    2708:	fe 4f       	sbci	r31, 0xFE	; 254
    270a:	90 81       	ld	r25, Z
    270c:	99 23       	and	r25, r25
    270e:	31 f0       	breq	.+12     	; 0x271c <ReadEncoder+0x6e>
	{
		counters[c]--;
    2710:	f9 01       	movw	r30, r18
    2712:	ec 5d       	subi	r30, 0xDC	; 220
    2714:	fe 4f       	sbci	r31, 0xFE	; 254
    2716:	91 50       	subi	r25, 0x01	; 1
    2718:	90 83       	st	Z, r25
		przerwa=1;			//Robimy opnienie tylko jeli ktry z licznikw by !=0
    271a:	41 e0       	ldi	r20, 0x01	; 1
		laststate&=(~_BV(PIND5));
		laststate|=(state & _BV(PIND5));
	}

	uint8_t przerwa=0;
	for(uint8_t c=0;c<2;c++)
    271c:	8f 5f       	subi	r24, 0xFF	; 255
    271e:	82 30       	cpi	r24, 0x02	; 2
    2720:	78 f3       	brcs	.-34     	; 0x2700 <ReadEncoder+0x52>
	if(counters[c])
	{
		counters[c]--;
		przerwa=1;			//Robimy opnienie tylko jeli ktry z licznikw by !=0
	}
	if(przerwa) _delay_ms(1);
    2722:	44 23       	and	r20, r20
    2724:	31 f0       	breq	.+12     	; 0x2732 <ReadEncoder+0x84>
    2726:	8f ec       	ldi	r24, 0xCF	; 207
    2728:	97 e0       	ldi	r25, 0x07	; 7
    272a:	01 97       	sbiw	r24, 0x01	; 1
    272c:	f1 f7       	brne	.-4      	; 0x272a <ReadEncoder+0x7c>
    272e:	00 c0       	rjmp	.+0      	; 0x2730 <ReadEncoder+0x82>
    2730:	00 00       	nop

	newpos=0;
	if((PIND & _BV(PIND4))==0) newpos=3;
    2732:	4c 9b       	sbis	0x09, 4	; 9
    2734:	02 c0       	rjmp	.+4      	; 0x273a <ReadEncoder+0x8c>
		counters[c]--;
		przerwa=1;			//Robimy opnienie tylko jeli ktry z licznikw by !=0
	}
	if(przerwa) _delay_ms(1);

	newpos=0;
    2736:	90 e0       	ldi	r25, 0x00	; 0
    2738:	01 c0       	rjmp	.+2      	; 0x273c <ReadEncoder+0x8e>
	if((PIND & _BV(PIND4))==0) newpos=3;
    273a:	93 e0       	ldi	r25, 0x03	; 3
	if((PIND & _BV(PIND5))==0) newpos^=1;	// konwersja kodu Graya na binarny
    273c:	4d 99       	sbic	0x09, 5	; 9
    273e:	02 c0       	rjmp	.+4      	; 0x2744 <ReadEncoder+0x96>
    2740:	81 e0       	ldi	r24, 0x01	; 1
    2742:	98 27       	eor	r25, r24
	diff=last-newpos;
    2744:	80 91 27 01 	lds	r24, 0x0127	; 0x800127 <last.2460>
    2748:	89 1b       	sub	r24, r25
	if(diff & 1)
    274a:	80 ff       	sbrs	r24, 0
    274c:	09 c0       	rjmp	.+18     	; 0x2760 <ReadEncoder+0xb2>
	{				// bit 0 = krok
		last=newpos;
    274e:	90 93 27 01 	sts	0x0127, r25	; 0x800127 <last.2460>
		enc_delta+=(diff & 2)-1;	//bit 1 - kierunek
    2752:	82 70       	andi	r24, 0x02	; 2
    2754:	90 91 01 01 	lds	r25, 0x0101	; 0x800101 <enc_delta>
    2758:	89 0f       	add	r24, r25
    275a:	81 50       	subi	r24, 0x01	; 1
    275c:	80 93 01 01 	sts	0x0101, r24	; 0x800101 <enc_delta>
    2760:	08 95       	ret

Disassembly of section .text.Read4StepEncoder:

000033ae <Read4StepEncoder>:
	}
}

int8_t Read4StepEncoder()
{
	ReadEncoder();
    33ae:	0e 94 57 13 	call	0x26ae	; 0x26ae <ReadEncoder>
	int8_t val=enc_delta;
    33b2:	80 91 01 01 	lds	r24, 0x0101	; 0x800101 <enc_delta>
	enc_delta=val & 3;
    33b6:	98 2f       	mov	r25, r24
    33b8:	93 70       	andi	r25, 0x03	; 3
    33ba:	90 93 01 01 	sts	0x0101, r25	; 0x800101 <enc_delta>
	return val>>2;
}
    33be:	85 95       	asr	r24
    33c0:	85 95       	asr	r24
    33c2:	08 95       	ret

Disassembly of section .text.main:

00001394 <main>:
//==================================================================
int main(void){
    1394:	cf 93       	push	r28
    1396:	df 93       	push	r29
    1398:	cd b7       	in	r28, 0x3d	; 61
    139a:	de b7       	in	r29, 0x3e	; 62
    139c:	a3 97       	sbiw	r28, 0x23	; 35
    139e:	0f b6       	in	r0, 0x3f	; 63
    13a0:	f8 94       	cli
    13a2:	de bf       	out	0x3e, r29	; 62
    13a4:	0f be       	out	0x3f, r0	; 63
    13a6:	cd bf       	out	0x3d, r28	; 61
	short A = 4;
	short T =7;
	short ISO = 2;
	//================================ ustawienie pinw jako input ====================
	PORTD|=1<<PIND2; //przycisk enkodera
    13a8:	8b b1       	in	r24, 0x0b	; 11
    13aa:	84 60       	ori	r24, 0x04	; 4
    13ac:	8b b9       	out	0x0b, r24	; 11
	PORTD|=1<<PIND3; // przycisk
    13ae:	8b b1       	in	r24, 0x0b	; 11
    13b0:	88 60       	ori	r24, 0x08	; 8
    13b2:	8b b9       	out	0x0b, r24	; 11
	//======================= enkoder =============
	PORTD|=_BV(PIND4) | _BV(PIND5);
    13b4:	8b b1       	in	r24, 0x0b	; 11
    13b6:	80 63       	ori	r24, 0x30	; 48
    13b8:	8b b9       	out	0x0b, r24	; 11
	//=============================================
	lcd_init(LCD_DISP_ON);    // init lcd and turn on
    13ba:	8f ea       	ldi	r24, 0xAF	; 175
    13bc:	0e 94 01 16 	call	0x2c02	; 0x2c02 <lcd_init>
	short mode=1;
	//lcd_charMode(DOUBLESIZE);
	DislpayInterface(mode); // wyswietlenie interfejsu 
    13c0:	81 e0       	ldi	r24, 0x01	; 1
    13c2:	90 e0       	ldi	r25, 0x00	; 0
    13c4:	0e 94 b9 10 	call	0x2172	; 0x2172 <DislpayInterface>
	displayA(A);
    13c8:	84 e0       	ldi	r24, 0x04	; 4
    13ca:	90 e0       	ldi	r25, 0x00	; 0
    13cc:	0e 94 32 11 	call	0x2264	; 0x2264 <displayA>
	displayT(T);
    13d0:	87 e0       	ldi	r24, 0x07	; 7
    13d2:	90 e0       	ldi	r25, 0x00	; 0
    13d4:	0e 94 a5 0f 	call	0x1f4a	; 0x1f4a <displayT>
	displayISO(ISO);
    13d8:	82 e0       	ldi	r24, 0x02	; 2
    13da:	90 e0       	ldi	r25, 0x00	; 0
    13dc:	0e 94 a8 14 	call	0x2950	; 0x2950 <displayISO>
	PORTD|=1<<PIND3; // przycisk
	//======================= enkoder =============
	PORTD|=_BV(PIND4) | _BV(PIND5);
	//=============================================
	lcd_init(LCD_DISP_ON);    // init lcd and turn on
	short mode=1;
    13e0:	01 e0       	ldi	r16, 0x01	; 1
    13e2:	10 e0       	ldi	r17, 0x00	; 0
}
//==================================================================
int main(void){
	short A = 4;
	short T =7;
	short ISO = 2;
    13e4:	68 94       	set
    13e6:	ee 24       	eor	r14, r14
    13e8:	e1 f8       	bld	r14, 1
    13ea:	f1 2c       	mov	r15, r1
	return val>>2;
}
//==================================================================
int main(void){
	short A = 4;
	short T =7;
    13ec:	0f 2e       	mov	r0, r31
    13ee:	f7 e0       	ldi	r31, 0x07	; 7
    13f0:	af 2e       	mov	r10, r31
    13f2:	b1 2c       	mov	r11, r1
    13f4:	f0 2d       	mov	r31, r0
	enc_delta=val & 3;
	return val>>2;
}
//==================================================================
int main(void){
	short A = 4;
    13f6:	68 94       	set
    13f8:	88 24       	eor	r8, r8
    13fa:	82 f8       	bld	r8, 2
    13fc:	91 2c       	mov	r9, r1
	displayT(T);
	displayISO(ISO);
	while(1){
							// =========== obsuga przycisku do zmiany trybu ========================
		
							if(bit_is_clear(PIND,2)) // zmiana trybu //przycisk enkodera
    13fe:	4a 99       	sbic	0x09, 2	; 9
    1400:	11 c0       	rjmp	.+34     	; 0x1424 <main+0x90>
							{
								if(mode<3)
    1402:	03 30       	cpi	r16, 0x03	; 3
    1404:	11 05       	cpc	r17, r1
    1406:	1c f4       	brge	.+6      	; 0x140e <main+0x7a>
								{
									mode++;		
    1408:	0f 5f       	subi	r16, 0xFF	; 255
    140a:	1f 4f       	sbci	r17, 0xFF	; 255
    140c:	02 c0       	rjmp	.+4      	; 0x1412 <main+0x7e>
								}
								else
								{
									mode=0;
    140e:	00 e0       	ldi	r16, 0x00	; 0
    1410:	10 e0       	ldi	r17, 0x00	; 0
								}
								DislpayInterface(mode);
    1412:	c8 01       	movw	r24, r16
    1414:	0e 94 b9 10 	call	0x2172	; 0x2172 <DislpayInterface>
    1418:	8f e2       	ldi	r24, 0x2F	; 47
    141a:	95 e7       	ldi	r25, 0x75	; 117
    141c:	01 97       	sbiw	r24, 0x01	; 1
    141e:	f1 f7       	brne	.-4      	; 0x141c <main+0x88>
    1420:	00 c0       	rjmp	.+0      	; 0x1422 <main+0x8e>
    1422:	00 00       	nop
							// =================================================================================
		
		
							//===============przycisk pomiaru ========================
		
							if(bit_is_clear(PIND,3)) //przycisk
    1424:	4b 99       	sbic	0x09, 3	; 9
    1426:	7f c1       	rjmp	.+766    	; 0x1726 <main+0x392>
							{
								if(mode==1)
    1428:	01 30       	cpi	r16, 0x01	; 1
    142a:	11 05       	cpc	r17, r1
    142c:	09 f0       	breq	.+2      	; 0x1430 <main+0x9c>
    142e:	d7 c0       	rjmp	.+430    	; 0x15de <main+0x24a>
								{
									float light = ReadLight(); //tutaj musi by odczyt z czujnika
    1430:	0e 94 b1 13 	call	0x2762	; 0x2762 <ReadLight>
    1434:	46 2e       	mov	r4, r22
    1436:	57 2e       	mov	r5, r23
    1438:	68 2e       	mov	r6, r24
    143a:	79 2e       	mov	r7, r25
									
									short lx=0;
									short lxtab[15]={28288,14144,7072,3536,1768,884,442,221,110,55,27,13,8,4,2};
    143c:	8e e1       	ldi	r24, 0x1E	; 30
    143e:	e4 e0       	ldi	r30, 0x04	; 4
    1440:	f1 e0       	ldi	r31, 0x01	; 1
    1442:	de 01       	movw	r26, r28
    1444:	11 96       	adiw	r26, 0x01	; 1
    1446:	01 90       	ld	r0, Z+
    1448:	0d 92       	st	X+, r0
    144a:	8a 95       	dec	r24
    144c:	e1 f7       	brne	.-8      	; 0x1446 <main+0xb2>
										if(light>28288 || light<0)
    144e:	20 e0       	ldi	r18, 0x00	; 0
    1450:	30 e0       	ldi	r19, 0x00	; 0
    1452:	4d ed       	ldi	r20, 0xDD	; 221
    1454:	56 e4       	ldi	r21, 0x46	; 70
    1456:	64 2d       	mov	r22, r4
    1458:	75 2d       	mov	r23, r5
    145a:	86 2d       	mov	r24, r6
    145c:	97 2d       	mov	r25, r7
    145e:	0e 94 4e 1a 	call	0x349c	; 0x349c <__gesf2>
    1462:	18 16       	cp	r1, r24
    1464:	0c f4       	brge	.+2      	; 0x1468 <main+0xd4>
    1466:	4f c0       	rjmp	.+158    	; 0x1506 <main+0x172>
    1468:	20 e0       	ldi	r18, 0x00	; 0
    146a:	30 e0       	ldi	r19, 0x00	; 0
    146c:	a9 01       	movw	r20, r18
    146e:	64 2d       	mov	r22, r4
    1470:	75 2d       	mov	r23, r5
    1472:	86 2d       	mov	r24, r6
    1474:	97 2d       	mov	r25, r7
    1476:	0e 94 49 1a 	call	0x3492	; 0x3492 <__cmpsf2>
    147a:	88 23       	and	r24, r24
    147c:	0c f4       	brge	.+2      	; 0x1480 <main+0xec>
    147e:	53 c0       	rjmp	.+166    	; 0x1526 <main+0x192>
    1480:	b1 2c       	mov	r11, r1
    1482:	22 c0       	rjmp	.+68     	; 0x14c8 <main+0x134>
										}
										else
										{
											for(uint8_t i=0 ;i<15;i++)
											{
												lxtab[i]= absolute(lxtab[i]-light);
    1484:	cb 2c       	mov	r12, r11
    1486:	d1 2c       	mov	r13, r1
    1488:	cc 0c       	add	r12, r12
    148a:	dd 1c       	adc	r13, r13
    148c:	e1 e0       	ldi	r30, 0x01	; 1
    148e:	f0 e0       	ldi	r31, 0x00	; 0
    1490:	ec 0f       	add	r30, r28
    1492:	fd 1f       	adc	r31, r29
    1494:	ce 0e       	add	r12, r30
    1496:	df 1e       	adc	r13, r31
    1498:	f6 01       	movw	r30, r12
    149a:	60 81       	ld	r22, Z
    149c:	71 81       	ldd	r23, Z+1	; 0x01
    149e:	07 2e       	mov	r0, r23
    14a0:	00 0c       	add	r0, r0
    14a2:	88 0b       	sbc	r24, r24
    14a4:	99 0b       	sbc	r25, r25
    14a6:	0e 94 c6 15 	call	0x2b8c	; 0x2b8c <__floatsisf>
    14aa:	24 2d       	mov	r18, r4
    14ac:	35 2d       	mov	r19, r5
    14ae:	46 2d       	mov	r20, r6
    14b0:	57 2d       	mov	r21, r7
    14b2:	0e 94 0f 1a 	call	0x341e	; 0x341e <__subsf3>
    14b6:	0e 94 16 1a 	call	0x342c	; 0x342c <__fixsfsi>
    14ba:	cb 01       	movw	r24, r22
    14bc:	0e 94 32 1a 	call	0x3464	; 0x3464 <absolute>
    14c0:	f6 01       	movw	r30, r12
    14c2:	91 83       	std	Z+1, r25	; 0x01
    14c4:	80 83       	st	Z, r24
											lx=0;
											light = 32245.0;
										}
										else
										{
											for(uint8_t i=0 ;i<15;i++)
    14c6:	b3 94       	inc	r11
    14c8:	fe e0       	ldi	r31, 0x0E	; 14
    14ca:	fb 15       	cp	r31, r11
    14cc:	d8 f6       	brcc	.-74     	; 0x1484 <main+0xf0>
											{
												lxtab[i]= absolute(lxtab[i]-light);
											}
											short min=lxtab[0];
    14ce:	29 81       	ldd	r18, Y+1	; 0x01
    14d0:	3a 81       	ldd	r19, Y+2	; 0x02
											for(uint8_t i=0 ;i<15;i++)
    14d2:	a0 e0       	ldi	r26, 0x00	; 0
							{
								if(mode==1)
								{
									float light = ReadLight(); //tutaj musi by odczyt z czujnika
									
									short lx=0;
    14d4:	40 e0       	ldi	r20, 0x00	; 0
    14d6:	50 e0       	ldi	r21, 0x00	; 0
											for(uint8_t i=0 ;i<15;i++)
											{
												lxtab[i]= absolute(lxtab[i]-light);
											}
											short min=lxtab[0];
											for(uint8_t i=0 ;i<15;i++)
    14d8:	13 c0       	rjmp	.+38     	; 0x1500 <main+0x16c>
											{
												if(lxtab[i]<=min)
    14da:	8a 2f       	mov	r24, r26
    14dc:	90 e0       	ldi	r25, 0x00	; 0
    14de:	fc 01       	movw	r30, r24
    14e0:	ee 0f       	add	r30, r30
    14e2:	ff 1f       	adc	r31, r31
    14e4:	61 e0       	ldi	r22, 0x01	; 1
    14e6:	70 e0       	ldi	r23, 0x00	; 0
    14e8:	6c 0f       	add	r22, r28
    14ea:	7d 1f       	adc	r23, r29
    14ec:	e6 0f       	add	r30, r22
    14ee:	f7 1f       	adc	r31, r23
    14f0:	60 81       	ld	r22, Z
    14f2:	71 81       	ldd	r23, Z+1	; 0x01
    14f4:	26 17       	cp	r18, r22
    14f6:	37 07       	cpc	r19, r23
    14f8:	14 f0       	brlt	.+4      	; 0x14fe <main+0x16a>
												{
													min=lxtab[i];
    14fa:	9b 01       	movw	r18, r22
													lx=i;
    14fc:	ac 01       	movw	r20, r24
											for(uint8_t i=0 ;i<15;i++)
											{
												lxtab[i]= absolute(lxtab[i]-light);
											}
											short min=lxtab[0];
											for(uint8_t i=0 ;i<15;i++)
    14fe:	af 5f       	subi	r26, 0xFF	; 255
    1500:	af 30       	cpi	r26, 0x0F	; 15
    1502:	58 f3       	brcs	.-42     	; 0x14da <main+0x146>
    1504:	1f c0       	rjmp	.+62     	; 0x1544 <main+0x1b0>
									
									short lx=0;
									short lxtab[15]={28288,14144,7072,3536,1768,884,442,221,110,55,27,13,8,4,2};
										if(light>28288 || light<0)
										{
											lx=0;
    1506:	40 e0       	ldi	r20, 0x00	; 0
    1508:	50 e0       	ldi	r21, 0x00	; 0
											light = 32245.0;
    150a:	41 2c       	mov	r4, r1
    150c:	0f 2e       	mov	r0, r31
    150e:	fa ee       	ldi	r31, 0xEA	; 234
    1510:	5f 2e       	mov	r5, r31
    1512:	f0 2d       	mov	r31, r0
    1514:	0f 2e       	mov	r0, r31
    1516:	fb ef       	ldi	r31, 0xFB	; 251
    1518:	6f 2e       	mov	r6, r31
    151a:	f0 2d       	mov	r31, r0
    151c:	0f 2e       	mov	r0, r31
    151e:	f6 e4       	ldi	r31, 0x46	; 70
    1520:	7f 2e       	mov	r7, r31
    1522:	f0 2d       	mov	r31, r0
    1524:	0f c0       	rjmp	.+30     	; 0x1544 <main+0x1b0>
									
									short lx=0;
									short lxtab[15]={28288,14144,7072,3536,1768,884,442,221,110,55,27,13,8,4,2};
										if(light>28288 || light<0)
										{
											lx=0;
    1526:	40 e0       	ldi	r20, 0x00	; 0
    1528:	50 e0       	ldi	r21, 0x00	; 0
											light = 32245.0;
    152a:	41 2c       	mov	r4, r1
    152c:	0f 2e       	mov	r0, r31
    152e:	fa ee       	ldi	r31, 0xEA	; 234
    1530:	5f 2e       	mov	r5, r31
    1532:	f0 2d       	mov	r31, r0
    1534:	0f 2e       	mov	r0, r31
    1536:	fb ef       	ldi	r31, 0xFB	; 251
    1538:	6f 2e       	mov	r6, r31
    153a:	f0 2d       	mov	r31, r0
    153c:	0f 2e       	mov	r0, r31
    153e:	f6 e4       	ldi	r31, 0x46	; 70
    1540:	7f 2e       	mov	r7, r31
    1542:	f0 2d       	mov	r31, r0
												}
											}
											
										}
									
									short evlx = 5-lx;
    1544:	25 e0       	ldi	r18, 0x05	; 5
    1546:	30 e0       	ldi	r19, 0x00	; 0
    1548:	24 1b       	sub	r18, r20
    154a:	35 0b       	sbc	r19, r21
									short evIS0 = 2-ISO;
    154c:	82 e0       	ldi	r24, 0x02	; 2
    154e:	90 e0       	ldi	r25, 0x00	; 0
    1550:	5c 01       	movw	r10, r24
    1552:	ae 18       	sub	r10, r14
    1554:	bf 08       	sbc	r11, r15
									short shift;
										short evA = A-4;
    1556:	c4 01       	movw	r24, r8
    1558:	04 97       	sbiw	r24, 0x04	; 4
										shift=evA+evIS0+evlx;
    155a:	a8 0e       	add	r10, r24
    155c:	b9 1e       	adc	r11, r25
    155e:	a2 0e       	add	r10, r18
    1560:	b3 1e       	adc	r11, r19
										T=7+shift;
    1562:	77 e0       	ldi	r23, 0x07	; 7
    1564:	a7 0e       	add	r10, r23
    1566:	b1 1c       	adc	r11, r1
										if(T>10)
    1568:	8b e0       	ldi	r24, 0x0B	; 11
    156a:	a8 16       	cp	r10, r24
    156c:	b1 04       	cpc	r11, r1
    156e:	1c f4       	brge	.+6      	; 0x1576 <main+0x1e2>
										{
											T=10;
										}
										else if(T<0)
    1570:	bb 20       	and	r11, r11
    1572:	4c f4       	brge	.+18     	; 0x1586 <main+0x1f2>
    1574:	06 c0       	rjmp	.+12     	; 0x1582 <main+0x1ee>
										short evA = A-4;
										shift=evA+evIS0+evlx;
										T=7+shift;
										if(T>10)
										{
											T=10;
    1576:	0f 2e       	mov	r0, r31
    1578:	fa e0       	ldi	r31, 0x0A	; 10
    157a:	af 2e       	mov	r10, r31
    157c:	b1 2c       	mov	r11, r1
    157e:	f0 2d       	mov	r31, r0
    1580:	02 c0       	rjmp	.+4      	; 0x1586 <main+0x1f2>
										}
										else if(T<0)
										{
											T=0;
    1582:	a1 2c       	mov	r10, r1
    1584:	b1 2c       	mov	r11, r1
										}
										displayT(T);
    1586:	c5 01       	movw	r24, r10
    1588:	0e 94 a5 0f 	call	0x1f4a	; 0x1f4a <displayT>
										shift=0;
										char str[5];
										lcd_gotoxy(11,7);
    158c:	67 e0       	ldi	r22, 0x07	; 7
    158e:	8b e0       	ldi	r24, 0x0B	; 11
    1590:	0e 94 ff 19 	call	0x33fe	; 0x33fe <lcd_gotoxy>
										lcd_puts("          ");
    1594:	6b e4       	ldi	r22, 0x4B	; 75
    1596:	74 e0       	ldi	r23, 0x04	; 4
    1598:	80 e0       	ldi	r24, 0x00	; 0
    159a:	0e 94 0a 19 	call	0x3214	; 0x3214 <lcd_puts>
										lcd_gotoxy(11,7);
    159e:	67 e0       	ldi	r22, 0x07	; 7
    15a0:	8b e0       	ldi	r24, 0x0B	; 11
    15a2:	0e 94 ff 19 	call	0x33fe	; 0x33fe <lcd_gotoxy>
										sprintf(str, "%g", light);
    15a6:	7f 92       	push	r7
    15a8:	6f 92       	push	r6
    15aa:	5f 92       	push	r5
    15ac:	4f 92       	push	r4
    15ae:	86 e5       	ldi	r24, 0x56	; 86
    15b0:	94 e0       	ldi	r25, 0x04	; 4
    15b2:	a0 e0       	ldi	r26, 0x00	; 0
    15b4:	af 93       	push	r26
    15b6:	9f 93       	push	r25
    15b8:	8f 93       	push	r24
    15ba:	6e 01       	movw	r12, r28
    15bc:	9f e1       	ldi	r25, 0x1F	; 31
    15be:	c9 0e       	add	r12, r25
    15c0:	d1 1c       	adc	r13, r1
    15c2:	df 92       	push	r13
    15c4:	cf 92       	push	r12
    15c6:	0e 94 74 19 	call	0x32e8	; 0x32e8 <_sprintf_eE>
										lcd_puts(str);
    15ca:	b6 01       	movw	r22, r12
    15cc:	80 e8       	ldi	r24, 0x80	; 128
    15ce:	0e 94 0a 19 	call	0x3214	; 0x3214 <lcd_puts>
    15d2:	0f b6       	in	r0, 0x3f	; 63
    15d4:	f8 94       	cli
    15d6:	de bf       	out	0x3e, r29	; 62
    15d8:	0f be       	out	0x3f, r0	; 63
    15da:	cd bf       	out	0x3d, r28	; 61
    15dc:	a4 c0       	rjmp	.+328    	; 0x1726 <main+0x392>
								}
								else if (mode==2)
    15de:	02 30       	cpi	r16, 0x02	; 2
    15e0:	11 05       	cpc	r17, r1
    15e2:	09 f0       	breq	.+2      	; 0x15e6 <main+0x252>
    15e4:	a0 c0       	rjmp	.+320    	; 0x1726 <main+0x392>
								{
									float light = ReadLight(); //tutaj musi by odczyt z czujnika
    15e6:	0e 94 b1 13 	call	0x2762	; 0x2762 <ReadLight>
    15ea:	46 2e       	mov	r4, r22
    15ec:	57 2e       	mov	r5, r23
    15ee:	78 2e       	mov	r7, r24
    15f0:	69 2e       	mov	r6, r25
									
									short lx=0;
									short lxtab[15]={28288,14144,7072,3536,1768,884,442,221,110,55,27,13,8,4,2};
    15f2:	8e e1       	ldi	r24, 0x1E	; 30
    15f4:	e4 e0       	ldi	r30, 0x04	; 4
    15f6:	f1 e0       	ldi	r31, 0x01	; 1
    15f8:	de 01       	movw	r26, r28
    15fa:	11 96       	adiw	r26, 0x01	; 1
    15fc:	01 90       	ld	r0, Z+
    15fe:	0d 92       	st	X+, r0
    1600:	8a 95       	dec	r24
    1602:	e1 f7       	brne	.-8      	; 0x15fc <main+0x268>
									for(uint8_t i=0 ;i<15;i++)
    1604:	91 2c       	mov	r9, r1
    1606:	22 c0       	rjmp	.+68     	; 0x164c <main+0x2b8>
									{
										lxtab[i]= absolute(lxtab[i]-light);
    1608:	c9 2c       	mov	r12, r9
    160a:	d1 2c       	mov	r13, r1
    160c:	cc 0c       	add	r12, r12
    160e:	dd 1c       	adc	r13, r13
    1610:	21 e0       	ldi	r18, 0x01	; 1
    1612:	30 e0       	ldi	r19, 0x00	; 0
    1614:	2c 0f       	add	r18, r28
    1616:	3d 1f       	adc	r19, r29
    1618:	c2 0e       	add	r12, r18
    161a:	d3 1e       	adc	r13, r19
    161c:	f6 01       	movw	r30, r12
    161e:	60 81       	ld	r22, Z
    1620:	71 81       	ldd	r23, Z+1	; 0x01
    1622:	07 2e       	mov	r0, r23
    1624:	00 0c       	add	r0, r0
    1626:	88 0b       	sbc	r24, r24
    1628:	99 0b       	sbc	r25, r25
    162a:	0e 94 c6 15 	call	0x2b8c	; 0x2b8c <__floatsisf>
    162e:	24 2d       	mov	r18, r4
    1630:	35 2d       	mov	r19, r5
    1632:	47 2d       	mov	r20, r7
    1634:	56 2d       	mov	r21, r6
    1636:	0e 94 0f 1a 	call	0x341e	; 0x341e <__subsf3>
    163a:	0e 94 16 1a 	call	0x342c	; 0x342c <__fixsfsi>
    163e:	cb 01       	movw	r24, r22
    1640:	0e 94 32 1a 	call	0x3464	; 0x3464 <absolute>
    1644:	f6 01       	movw	r30, r12
    1646:	91 83       	std	Z+1, r25	; 0x01
    1648:	80 83       	st	Z, r24
								{
									float light = ReadLight(); //tutaj musi by odczyt z czujnika
									
									short lx=0;
									short lxtab[15]={28288,14144,7072,3536,1768,884,442,221,110,55,27,13,8,4,2};
									for(uint8_t i=0 ;i<15;i++)
    164a:	93 94       	inc	r9
    164c:	fe e0       	ldi	r31, 0x0E	; 14
    164e:	f9 15       	cp	r31, r9
    1650:	d8 f6       	brcc	.-74     	; 0x1608 <main+0x274>
									{
										lxtab[i]= absolute(lxtab[i]-light);
									}
									short min=lxtab[0];
    1652:	29 81       	ldd	r18, Y+1	; 0x01
    1654:	3a 81       	ldd	r19, Y+2	; 0x02
									for(uint8_t i=0 ;i<15;i++)
    1656:	a0 e0       	ldi	r26, 0x00	; 0
								}
								else if (mode==2)
								{
									float light = ReadLight(); //tutaj musi by odczyt z czujnika
									
									short lx=0;
    1658:	40 e0       	ldi	r20, 0x00	; 0
    165a:	50 e0       	ldi	r21, 0x00	; 0
									for(uint8_t i=0 ;i<15;i++)
									{
										lxtab[i]= absolute(lxtab[i]-light);
									}
									short min=lxtab[0];
									for(uint8_t i=0 ;i<15;i++)
    165c:	13 c0       	rjmp	.+38     	; 0x1684 <main+0x2f0>
									{
										if(lxtab[i]<=min)
    165e:	8a 2f       	mov	r24, r26
    1660:	90 e0       	ldi	r25, 0x00	; 0
    1662:	fc 01       	movw	r30, r24
    1664:	ee 0f       	add	r30, r30
    1666:	ff 1f       	adc	r31, r31
    1668:	61 e0       	ldi	r22, 0x01	; 1
    166a:	70 e0       	ldi	r23, 0x00	; 0
    166c:	6c 0f       	add	r22, r28
    166e:	7d 1f       	adc	r23, r29
    1670:	e6 0f       	add	r30, r22
    1672:	f7 1f       	adc	r31, r23
    1674:	60 81       	ld	r22, Z
    1676:	71 81       	ldd	r23, Z+1	; 0x01
    1678:	26 17       	cp	r18, r22
    167a:	37 07       	cpc	r19, r23
    167c:	14 f0       	brlt	.+4      	; 0x1682 <main+0x2ee>
										{
											min=lxtab[i];
    167e:	9b 01       	movw	r18, r22
											lx=i;
    1680:	ac 01       	movw	r20, r24
									for(uint8_t i=0 ;i<15;i++)
									{
										lxtab[i]= absolute(lxtab[i]-light);
									}
									short min=lxtab[0];
									for(uint8_t i=0 ;i<15;i++)
    1682:	af 5f       	subi	r26, 0xFF	; 255
    1684:	af 30       	cpi	r26, 0x0F	; 15
    1686:	58 f3       	brcs	.-42     	; 0x165e <main+0x2ca>
										{
											min=lxtab[i];
											lx=i;
										}
									}
									short evlx = 5-lx;
    1688:	85 e0       	ldi	r24, 0x05	; 5
    168a:	90 e0       	ldi	r25, 0x00	; 0
    168c:	fc 01       	movw	r30, r24
    168e:	e4 1b       	sub	r30, r20
    1690:	f5 0b       	sbc	r31, r21
									short evIS0 = 2-ISO;
    1692:	82 e0       	ldi	r24, 0x02	; 2
    1694:	90 e0       	ldi	r25, 0x00	; 0
    1696:	8e 19       	sub	r24, r14
    1698:	9f 09       	sbc	r25, r15
									short shift;
									
									
									short evT= 7-T;
    169a:	27 e0       	ldi	r18, 0x07	; 7
    169c:	30 e0       	ldi	r19, 0x00	; 0
    169e:	2a 19       	sub	r18, r10
    16a0:	3b 09       	sbc	r19, r11
									shift=evT+evIS0+evlx;
    16a2:	82 0f       	add	r24, r18
    16a4:	93 1f       	adc	r25, r19
    16a6:	8e 0f       	add	r24, r30
    16a8:	9f 1f       	adc	r25, r31
									A=4-shift;
    16aa:	24 e0       	ldi	r18, 0x04	; 4
    16ac:	30 e0       	ldi	r19, 0x00	; 0
    16ae:	49 01       	movw	r8, r18
    16b0:	88 1a       	sub	r8, r24
    16b2:	99 0a       	sbc	r9, r25
									if(A>8)
    16b4:	f9 e0       	ldi	r31, 0x09	; 9
    16b6:	8f 16       	cp	r8, r31
    16b8:	91 04       	cpc	r9, r1
    16ba:	1c f4       	brge	.+6      	; 0x16c2 <main+0x32e>
									{
										A=8;
									}
									else if(A<0)
    16bc:	99 20       	and	r9, r9
    16be:	44 f4       	brge	.+16     	; 0x16d0 <main+0x33c>
    16c0:	05 c0       	rjmp	.+10     	; 0x16cc <main+0x338>
									short evT= 7-T;
									shift=evT+evIS0+evlx;
									A=4-shift;
									if(A>8)
									{
										A=8;
    16c2:	68 94       	set
    16c4:	88 24       	eor	r8, r8
    16c6:	83 f8       	bld	r8, 3
    16c8:	91 2c       	mov	r9, r1
    16ca:	02 c0       	rjmp	.+4      	; 0x16d0 <main+0x33c>
									}
									else if(A<0)
									{
										A=0;
    16cc:	81 2c       	mov	r8, r1
    16ce:	91 2c       	mov	r9, r1
									}
									displayA(A);
    16d0:	c4 01       	movw	r24, r8
    16d2:	0e 94 32 11 	call	0x2264	; 0x2264 <displayA>
									shift=0;
									char str[5];
									lcd_gotoxy(11,7);
    16d6:	67 e0       	ldi	r22, 0x07	; 7
    16d8:	8b e0       	ldi	r24, 0x0B	; 11
    16da:	0e 94 ff 19 	call	0x33fe	; 0x33fe <lcd_gotoxy>
									lcd_puts("          ");
    16de:	6b e4       	ldi	r22, 0x4B	; 75
    16e0:	74 e0       	ldi	r23, 0x04	; 4
    16e2:	80 e0       	ldi	r24, 0x00	; 0
    16e4:	0e 94 0a 19 	call	0x3214	; 0x3214 <lcd_puts>
									lcd_gotoxy(11,7);
    16e8:	67 e0       	ldi	r22, 0x07	; 7
    16ea:	8b e0       	ldi	r24, 0x0B	; 11
    16ec:	0e 94 ff 19 	call	0x33fe	; 0x33fe <lcd_gotoxy>
									sprintf(str, "%g", light);
    16f0:	6f 92       	push	r6
    16f2:	7f 92       	push	r7
    16f4:	5f 92       	push	r5
    16f6:	4f 92       	push	r4
    16f8:	86 e5       	ldi	r24, 0x56	; 86
    16fa:	94 e0       	ldi	r25, 0x04	; 4
    16fc:	a0 e0       	ldi	r26, 0x00	; 0
    16fe:	af 93       	push	r26
    1700:	9f 93       	push	r25
    1702:	8f 93       	push	r24
    1704:	6e 01       	movw	r12, r28
    1706:	2f e1       	ldi	r18, 0x1F	; 31
    1708:	c2 0e       	add	r12, r18
    170a:	d1 1c       	adc	r13, r1
    170c:	df 92       	push	r13
    170e:	cf 92       	push	r12
    1710:	0e 94 74 19 	call	0x32e8	; 0x32e8 <_sprintf_eE>
									lcd_puts(str);
    1714:	b6 01       	movw	r22, r12
    1716:	80 e8       	ldi	r24, 0x80	; 128
    1718:	0e 94 0a 19 	call	0x3214	; 0x3214 <lcd_puts>
    171c:	0f b6       	in	r0, 0x3f	; 63
    171e:	f8 94       	cli
    1720:	de bf       	out	0x3e, r29	; 62
    1722:	0f be       	out	0x3f, r0	; 63
    1724:	cd bf       	out	0x3d, r28	; 61
								 
							}
							//==================================================================
								
								// ======================== plus enkoder ======================
								switch(Read4StepEncoder())  // zwieksza lub zmniejsza x od zero do dziesiec
    1726:	0e 94 d7 19 	call	0x33ae	; 0x33ae <Read4StepEncoder>
    172a:	8f 3f       	cpi	r24, 0xFF	; 255
    172c:	39 f1       	breq	.+78     	; 0x177c <main+0x3e8>
    172e:	81 30       	cpi	r24, 0x01	; 1
    1730:	09 f0       	breq	.+2      	; 0x1734 <main+0x3a0>
    1732:	65 ce       	rjmp	.-822    	; 0x13fe <main+0x6a>
								{
									case 1 : 
									if(mode==0)//iso
    1734:	01 15       	cp	r16, r1
    1736:	11 05       	cpc	r17, r1
    1738:	51 f4       	brne	.+20     	; 0x174e <main+0x3ba>
 									{
 										if(ISO>0)
    173a:	1e 14       	cp	r1, r14
    173c:	1f 04       	cpc	r1, r15
    173e:	0c f0       	brlt	.+2      	; 0x1742 <main+0x3ae>
    1740:	5e ce       	rjmp	.-836    	; 0x13fe <main+0x6a>
 										{
 											ISO--;
    1742:	c7 01       	movw	r24, r14
    1744:	01 97       	sbiw	r24, 0x01	; 1
    1746:	7c 01       	movw	r14, r24
 											displayISO(ISO);
    1748:	0e 94 a8 14 	call	0x2950	; 0x2950 <displayISO>
    174c:	58 ce       	rjmp	.-848    	; 0x13fe <main+0x6a>

 										}
 									}
 									else if(mode==1)//A
    174e:	01 30       	cpi	r16, 0x01	; 1
    1750:	11 05       	cpc	r17, r1
    1752:	51 f4       	brne	.+20     	; 0x1768 <main+0x3d4>
 									{
 										if(A>0)
    1754:	18 14       	cp	r1, r8
    1756:	19 04       	cpc	r1, r9
    1758:	0c f0       	brlt	.+2      	; 0x175c <main+0x3c8>
    175a:	51 ce       	rjmp	.-862    	; 0x13fe <main+0x6a>
 										{
 											A--;
    175c:	c4 01       	movw	r24, r8
    175e:	01 97       	sbiw	r24, 0x01	; 1
    1760:	4c 01       	movw	r8, r24
 											displayA(A);
    1762:	0e 94 32 11 	call	0x2264	; 0x2264 <displayA>
    1766:	4b ce       	rjmp	.-874    	; 0x13fe <main+0x6a>
											
 										}
 									}
 									else//T
 									{
 										if(T>0)
    1768:	1a 14       	cp	r1, r10
    176a:	1b 04       	cpc	r1, r11
    176c:	0c f0       	brlt	.+2      	; 0x1770 <main+0x3dc>
    176e:	47 ce       	rjmp	.-882    	; 0x13fe <main+0x6a>
 										{
 											T--;
    1770:	c5 01       	movw	r24, r10
    1772:	01 97       	sbiw	r24, 0x01	; 1
    1774:	5c 01       	movw	r10, r24
 											displayT(T);
    1776:	0e 94 a5 0f 	call	0x1f4a	; 0x1f4a <displayT>
    177a:	41 ce       	rjmp	.-894    	; 0x13fe <main+0x6a>
 									} 
									break;
									case 0  :	break;
									case -1  : 	
																	
 									if(mode==0)//iso
    177c:	01 15       	cp	r16, r1
    177e:	11 05       	cpc	r17, r1
    1780:	59 f4       	brne	.+22     	; 0x1798 <main+0x404>
 									{
 										if(ISO<5)
    1782:	75 e0       	ldi	r23, 0x05	; 5
    1784:	e7 16       	cp	r14, r23
    1786:	f1 04       	cpc	r15, r1
    1788:	0c f0       	brlt	.+2      	; 0x178c <main+0x3f8>
    178a:	39 ce       	rjmp	.-910    	; 0x13fe <main+0x6a>
 										{
 											ISO++;
    178c:	c7 01       	movw	r24, r14
    178e:	01 96       	adiw	r24, 0x01	; 1
    1790:	7c 01       	movw	r14, r24
 											displayISO(ISO);
    1792:	0e 94 a8 14 	call	0x2950	; 0x2950 <displayISO>
    1796:	33 ce       	rjmp	.-922    	; 0x13fe <main+0x6a>
											
 										}
 									}
 									else if(mode==1)//A
    1798:	01 30       	cpi	r16, 0x01	; 1
    179a:	11 05       	cpc	r17, r1
    179c:	59 f4       	brne	.+22     	; 0x17b4 <main+0x420>
 									{
 										if(A<8)
    179e:	88 e0       	ldi	r24, 0x08	; 8
    17a0:	88 16       	cp	r8, r24
    17a2:	91 04       	cpc	r9, r1
    17a4:	0c f0       	brlt	.+2      	; 0x17a8 <main+0x414>
    17a6:	2b ce       	rjmp	.-938    	; 0x13fe <main+0x6a>
 										{
 											A++;
    17a8:	c4 01       	movw	r24, r8
    17aa:	01 96       	adiw	r24, 0x01	; 1
    17ac:	4c 01       	movw	r8, r24
 											displayA(A);
    17ae:	0e 94 32 11 	call	0x2264	; 0x2264 <displayA>
    17b2:	25 ce       	rjmp	.-950    	; 0x13fe <main+0x6a>
											
 										}
 									}
 									else//T
 									{
 										if(T<10)
    17b4:	9a e0       	ldi	r25, 0x0A	; 10
    17b6:	a9 16       	cp	r10, r25
    17b8:	b1 04       	cpc	r11, r1
    17ba:	0c f0       	brlt	.+2      	; 0x17be <main+0x42a>
    17bc:	20 ce       	rjmp	.-960    	; 0x13fe <main+0x6a>
 										{
 											T++;
    17be:	c5 01       	movw	r24, r10
    17c0:	01 96       	adiw	r24, 0x01	; 1
    17c2:	5c 01       	movw	r10, r24
 											displayT(T);
    17c4:	0e 94 a5 0f 	call	0x1f4a	; 0x1f4a <displayT>
    17c8:	1a ce       	rjmp	.-972    	; 0x13fe <main+0x6a>

Disassembly of section .text:

0000341e <__subsf3>:
    341e:	50 58       	subi	r21, 0x80	; 128

00003420 <__addsf3>:
    3420:	bb 27       	eor	r27, r27
    3422:	aa 27       	eor	r26, r26
    3424:	0e 94 f0 12 	call	0x25e0	; 0x25e0 <__addsf3x>
    3428:	0c 94 87 19 	jmp	0x330e	; 0x330e <__fp_round>

Disassembly of section .text:

000025e0 <__addsf3x>:
    25e0:	11 c0       	rjmp	.+34     	; 0x2604 <__addsf3x+0x24>
    25e2:	0e 94 1d 1a 	call	0x343a	; 0x343a <__fp_pscA>
    25e6:	38 f0       	brcs	.+14     	; 0x25f6 <__addsf3x+0x16>
    25e8:	0e 94 24 1a 	call	0x3448	; 0x3448 <__fp_pscB>
    25ec:	20 f0       	brcs	.+8      	; 0x25f6 <__addsf3x+0x16>
    25ee:	39 f4       	brne	.+14     	; 0x25fe <__addsf3x+0x1e>
    25f0:	9f 3f       	cpi	r25, 0xFF	; 255
    25f2:	19 f4       	brne	.+6      	; 0x25fa <__addsf3x+0x1a>
    25f4:	26 f4       	brtc	.+8      	; 0x25fe <__addsf3x+0x1e>
    25f6:	0c 94 63 1a 	jmp	0x34c6	; 0x34c6 <__fp_nan>
    25fa:	0e f4       	brtc	.+2      	; 0x25fe <__addsf3x+0x1e>
    25fc:	e0 95       	com	r30
    25fe:	e7 fb       	bst	r30, 7
    2600:	0c 94 38 1a 	jmp	0x3470	; 0x3470 <__fp_inf>
    2604:	e9 2f       	mov	r30, r25
    2606:	0e 94 cb 17 	call	0x2f96	; 0x2f96 <__fp_split3>
    260a:	58 f3       	brcs	.-42     	; 0x25e2 <__addsf3x+0x2>
    260c:	ba 17       	cp	r27, r26
    260e:	62 07       	cpc	r22, r18
    2610:	73 07       	cpc	r23, r19
    2612:	84 07       	cpc	r24, r20
    2614:	95 07       	cpc	r25, r21
    2616:	20 f0       	brcs	.+8      	; 0x2620 <__addsf3x+0x40>
    2618:	79 f4       	brne	.+30     	; 0x2638 <__addsf3x+0x58>
    261a:	a6 f5       	brtc	.+104    	; 0x2684 <__addsf3x+0xa4>
    261c:	0c 94 2b 1a 	jmp	0x3456	; 0x3456 <__fp_zero>
    2620:	0e f4       	brtc	.+2      	; 0x2624 <__addsf3x+0x44>
    2622:	e0 95       	com	r30
    2624:	0b 2e       	mov	r0, r27
    2626:	ba 2f       	mov	r27, r26
    2628:	a0 2d       	mov	r26, r0
    262a:	0b 01       	movw	r0, r22
    262c:	b9 01       	movw	r22, r18
    262e:	90 01       	movw	r18, r0
    2630:	0c 01       	movw	r0, r24
    2632:	ca 01       	movw	r24, r20
    2634:	a0 01       	movw	r20, r0
    2636:	11 24       	eor	r1, r1
    2638:	ff 27       	eor	r31, r31
    263a:	59 1b       	sub	r21, r25
    263c:	99 f0       	breq	.+38     	; 0x2664 <__addsf3x+0x84>
    263e:	59 3f       	cpi	r21, 0xF9	; 249
    2640:	50 f4       	brcc	.+20     	; 0x2656 <__addsf3x+0x76>
    2642:	50 3e       	cpi	r21, 0xE0	; 224
    2644:	68 f1       	brcs	.+90     	; 0x26a0 <__addsf3x+0xc0>
    2646:	1a 16       	cp	r1, r26
    2648:	f0 40       	sbci	r31, 0x00	; 0
    264a:	a2 2f       	mov	r26, r18
    264c:	23 2f       	mov	r18, r19
    264e:	34 2f       	mov	r19, r20
    2650:	44 27       	eor	r20, r20
    2652:	58 5f       	subi	r21, 0xF8	; 248
    2654:	f3 cf       	rjmp	.-26     	; 0x263c <__addsf3x+0x5c>
    2656:	46 95       	lsr	r20
    2658:	37 95       	ror	r19
    265a:	27 95       	ror	r18
    265c:	a7 95       	ror	r26
    265e:	f0 40       	sbci	r31, 0x00	; 0
    2660:	53 95       	inc	r21
    2662:	c9 f7       	brne	.-14     	; 0x2656 <__addsf3x+0x76>
    2664:	7e f4       	brtc	.+30     	; 0x2684 <__addsf3x+0xa4>
    2666:	1f 16       	cp	r1, r31
    2668:	ba 0b       	sbc	r27, r26
    266a:	62 0b       	sbc	r22, r18
    266c:	73 0b       	sbc	r23, r19
    266e:	84 0b       	sbc	r24, r20
    2670:	ba f0       	brmi	.+46     	; 0x26a0 <__addsf3x+0xc0>
    2672:	91 50       	subi	r25, 0x01	; 1
    2674:	a1 f0       	breq	.+40     	; 0x269e <__addsf3x+0xbe>
    2676:	ff 0f       	add	r31, r31
    2678:	bb 1f       	adc	r27, r27
    267a:	66 1f       	adc	r22, r22
    267c:	77 1f       	adc	r23, r23
    267e:	88 1f       	adc	r24, r24
    2680:	c2 f7       	brpl	.-16     	; 0x2672 <__addsf3x+0x92>
    2682:	0e c0       	rjmp	.+28     	; 0x26a0 <__addsf3x+0xc0>
    2684:	ba 0f       	add	r27, r26
    2686:	62 1f       	adc	r22, r18
    2688:	73 1f       	adc	r23, r19
    268a:	84 1f       	adc	r24, r20
    268c:	48 f4       	brcc	.+18     	; 0x26a0 <__addsf3x+0xc0>
    268e:	87 95       	ror	r24
    2690:	77 95       	ror	r23
    2692:	67 95       	ror	r22
    2694:	b7 95       	ror	r27
    2696:	f7 95       	ror	r31
    2698:	9e 3f       	cpi	r25, 0xFE	; 254
    269a:	08 f0       	brcs	.+2      	; 0x269e <__addsf3x+0xbe>
    269c:	b0 cf       	rjmp	.-160    	; 0x25fe <__addsf3x+0x1e>
    269e:	93 95       	inc	r25
    26a0:	88 0f       	add	r24, r24
    26a2:	08 f0       	brcs	.+2      	; 0x26a6 <__addsf3x+0xc6>
    26a4:	99 27       	eor	r25, r25
    26a6:	ee 0f       	add	r30, r30
    26a8:	97 95       	ror	r25
    26aa:	87 95       	ror	r24
    26ac:	08 95       	ret

Disassembly of section .text:

00003492 <__cmpsf2>:
    3492:	0e 94 a7 17 	call	0x2f4e	; 0x2f4e <__fp_cmp>
    3496:	08 f4       	brcc	.+2      	; 0x349a <__cmpsf2+0x8>
    3498:	81 e0       	ldi	r24, 0x01	; 1
    349a:	08 95       	ret

Disassembly of section .text:

000034b6 <__divsf3>:
    34b6:	0e 94 ab 11 	call	0x2356	; 0x2356 <__divsf3x>
    34ba:	0c 94 87 19 	jmp	0x330e	; 0x330e <__fp_round>

Disassembly of section .text:

00002356 <__divsf3x>:
    2356:	10 c0       	rjmp	.+32     	; 0x2378 <__divsf3x+0x22>
    2358:	0e 94 24 1a 	call	0x3448	; 0x3448 <__fp_pscB>
    235c:	58 f0       	brcs	.+22     	; 0x2374 <__divsf3x+0x1e>
    235e:	0e 94 1d 1a 	call	0x343a	; 0x343a <__fp_pscA>
    2362:	40 f0       	brcs	.+16     	; 0x2374 <__divsf3x+0x1e>
    2364:	29 f4       	brne	.+10     	; 0x2370 <__divsf3x+0x1a>
    2366:	5f 3f       	cpi	r21, 0xFF	; 255
    2368:	29 f0       	breq	.+10     	; 0x2374 <__divsf3x+0x1e>
    236a:	0c 94 38 1a 	jmp	0x3470	; 0x3470 <__fp_inf>
    236e:	51 11       	cpse	r21, r1
    2370:	0c 94 2c 1a 	jmp	0x3458	; 0x3458 <__fp_szero>
    2374:	0c 94 63 1a 	jmp	0x34c6	; 0x34c6 <__fp_nan>
    2378:	0e 94 cb 17 	call	0x2f96	; 0x2f96 <__fp_split3>
    237c:	68 f3       	brcs	.-38     	; 0x2358 <__divsf3x+0x2>

0000237e <__divsf3_pse>:
    237e:	99 23       	and	r25, r25
    2380:	b1 f3       	breq	.-20     	; 0x236e <__divsf3x+0x18>
    2382:	55 23       	and	r21, r21
    2384:	91 f3       	breq	.-28     	; 0x236a <__divsf3x+0x14>
    2386:	95 1b       	sub	r25, r21
    2388:	55 0b       	sbc	r21, r21
    238a:	bb 27       	eor	r27, r27
    238c:	aa 27       	eor	r26, r26
    238e:	62 17       	cp	r22, r18
    2390:	73 07       	cpc	r23, r19
    2392:	84 07       	cpc	r24, r20
    2394:	38 f0       	brcs	.+14     	; 0x23a4 <__divsf3_pse+0x26>
    2396:	9f 5f       	subi	r25, 0xFF	; 255
    2398:	5f 4f       	sbci	r21, 0xFF	; 255
    239a:	22 0f       	add	r18, r18
    239c:	33 1f       	adc	r19, r19
    239e:	44 1f       	adc	r20, r20
    23a0:	aa 1f       	adc	r26, r26
    23a2:	a9 f3       	breq	.-22     	; 0x238e <__divsf3_pse+0x10>
    23a4:	35 d0       	rcall	.+106    	; 0x2410 <__divsf3_pse+0x92>
    23a6:	0e 2e       	mov	r0, r30
    23a8:	3a f0       	brmi	.+14     	; 0x23b8 <__divsf3_pse+0x3a>
    23aa:	e0 e8       	ldi	r30, 0x80	; 128
    23ac:	32 d0       	rcall	.+100    	; 0x2412 <__divsf3_pse+0x94>
    23ae:	91 50       	subi	r25, 0x01	; 1
    23b0:	50 40       	sbci	r21, 0x00	; 0
    23b2:	e6 95       	lsr	r30
    23b4:	00 1c       	adc	r0, r0
    23b6:	ca f7       	brpl	.-14     	; 0x23aa <__divsf3_pse+0x2c>
    23b8:	2b d0       	rcall	.+86     	; 0x2410 <__divsf3_pse+0x92>
    23ba:	fe 2f       	mov	r31, r30
    23bc:	29 d0       	rcall	.+82     	; 0x2410 <__divsf3_pse+0x92>
    23be:	66 0f       	add	r22, r22
    23c0:	77 1f       	adc	r23, r23
    23c2:	88 1f       	adc	r24, r24
    23c4:	bb 1f       	adc	r27, r27
    23c6:	26 17       	cp	r18, r22
    23c8:	37 07       	cpc	r19, r23
    23ca:	48 07       	cpc	r20, r24
    23cc:	ab 07       	cpc	r26, r27
    23ce:	b0 e8       	ldi	r27, 0x80	; 128
    23d0:	09 f0       	breq	.+2      	; 0x23d4 <__divsf3_pse+0x56>
    23d2:	bb 0b       	sbc	r27, r27
    23d4:	80 2d       	mov	r24, r0
    23d6:	bf 01       	movw	r22, r30
    23d8:	ff 27       	eor	r31, r31
    23da:	93 58       	subi	r25, 0x83	; 131
    23dc:	5f 4f       	sbci	r21, 0xFF	; 255
    23de:	3a f0       	brmi	.+14     	; 0x23ee <__divsf3_pse+0x70>
    23e0:	9e 3f       	cpi	r25, 0xFE	; 254
    23e2:	51 05       	cpc	r21, r1
    23e4:	78 f0       	brcs	.+30     	; 0x2404 <__divsf3_pse+0x86>
    23e6:	0c 94 38 1a 	jmp	0x3470	; 0x3470 <__fp_inf>
    23ea:	0c 94 2c 1a 	jmp	0x3458	; 0x3458 <__fp_szero>
    23ee:	5f 3f       	cpi	r21, 0xFF	; 255
    23f0:	e4 f3       	brlt	.-8      	; 0x23ea <__divsf3_pse+0x6c>
    23f2:	98 3e       	cpi	r25, 0xE8	; 232
    23f4:	d4 f3       	brlt	.-12     	; 0x23ea <__divsf3_pse+0x6c>
    23f6:	86 95       	lsr	r24
    23f8:	77 95       	ror	r23
    23fa:	67 95       	ror	r22
    23fc:	b7 95       	ror	r27
    23fe:	f7 95       	ror	r31
    2400:	9f 5f       	subi	r25, 0xFF	; 255
    2402:	c9 f7       	brne	.-14     	; 0x23f6 <__divsf3_pse+0x78>
    2404:	88 0f       	add	r24, r24
    2406:	91 1d       	adc	r25, r1
    2408:	96 95       	lsr	r25
    240a:	87 95       	ror	r24
    240c:	97 f9       	bld	r25, 7
    240e:	08 95       	ret
    2410:	e1 e0       	ldi	r30, 0x01	; 1
    2412:	66 0f       	add	r22, r22
    2414:	77 1f       	adc	r23, r23
    2416:	88 1f       	adc	r24, r24
    2418:	bb 1f       	adc	r27, r27
    241a:	62 17       	cp	r22, r18
    241c:	73 07       	cpc	r23, r19
    241e:	84 07       	cpc	r24, r20
    2420:	ba 07       	cpc	r27, r26
    2422:	20 f0       	brcs	.+8      	; 0x242c <__divsf3_pse+0xae>
    2424:	62 1b       	sub	r22, r18
    2426:	73 0b       	sbc	r23, r19
    2428:	84 0b       	sbc	r24, r20
    242a:	ba 0b       	sbc	r27, r26
    242c:	ee 1f       	adc	r30, r30
    242e:	88 f7       	brcc	.-30     	; 0x2412 <__divsf3_pse+0x94>
    2430:	e0 95       	com	r30
    2432:	08 95       	ret

Disassembly of section .text:

0000342c <__fixsfsi>:
    342c:	0e 94 02 17 	call	0x2e04	; 0x2e04 <__fixunssfsi>
    3430:	68 94       	set
    3432:	b1 11       	cpse	r27, r1
    3434:	0c 94 2c 1a 	jmp	0x3458	; 0x3458 <__fp_szero>
    3438:	08 95       	ret

Disassembly of section .text:

00002e04 <__fixunssfsi>:
    2e04:	0e 94 d3 17 	call	0x2fa6	; 0x2fa6 <__fp_splitA>
    2e08:	88 f0       	brcs	.+34     	; 0x2e2c <__fixunssfsi+0x28>
    2e0a:	9f 57       	subi	r25, 0x7F	; 127
    2e0c:	98 f0       	brcs	.+38     	; 0x2e34 <__fixunssfsi+0x30>
    2e0e:	b9 2f       	mov	r27, r25
    2e10:	99 27       	eor	r25, r25
    2e12:	b7 51       	subi	r27, 0x17	; 23
    2e14:	b0 f0       	brcs	.+44     	; 0x2e42 <__fixunssfsi+0x3e>
    2e16:	e1 f0       	breq	.+56     	; 0x2e50 <__fixunssfsi+0x4c>
    2e18:	66 0f       	add	r22, r22
    2e1a:	77 1f       	adc	r23, r23
    2e1c:	88 1f       	adc	r24, r24
    2e1e:	99 1f       	adc	r25, r25
    2e20:	1a f0       	brmi	.+6      	; 0x2e28 <__fixunssfsi+0x24>
    2e22:	ba 95       	dec	r27
    2e24:	c9 f7       	brne	.-14     	; 0x2e18 <__fixunssfsi+0x14>
    2e26:	14 c0       	rjmp	.+40     	; 0x2e50 <__fixunssfsi+0x4c>
    2e28:	b1 30       	cpi	r27, 0x01	; 1
    2e2a:	91 f0       	breq	.+36     	; 0x2e50 <__fixunssfsi+0x4c>
    2e2c:	0e 94 2b 1a 	call	0x3456	; 0x3456 <__fp_zero>
    2e30:	b1 e0       	ldi	r27, 0x01	; 1
    2e32:	08 95       	ret
    2e34:	0c 94 2b 1a 	jmp	0x3456	; 0x3456 <__fp_zero>
    2e38:	67 2f       	mov	r22, r23
    2e3a:	78 2f       	mov	r23, r24
    2e3c:	88 27       	eor	r24, r24
    2e3e:	b8 5f       	subi	r27, 0xF8	; 248
    2e40:	39 f0       	breq	.+14     	; 0x2e50 <__fixunssfsi+0x4c>
    2e42:	b9 3f       	cpi	r27, 0xF9	; 249
    2e44:	cc f3       	brlt	.-14     	; 0x2e38 <__fixunssfsi+0x34>
    2e46:	86 95       	lsr	r24
    2e48:	77 95       	ror	r23
    2e4a:	67 95       	ror	r22
    2e4c:	b3 95       	inc	r27
    2e4e:	d9 f7       	brne	.-10     	; 0x2e46 <__fixunssfsi+0x42>
    2e50:	3e f4       	brtc	.+14     	; 0x2e60 <__fixunssfsi+0x5c>
    2e52:	90 95       	com	r25
    2e54:	80 95       	com	r24
    2e56:	70 95       	com	r23
    2e58:	61 95       	neg	r22
    2e5a:	7f 4f       	sbci	r23, 0xFF	; 255
    2e5c:	8f 4f       	sbci	r24, 0xFF	; 255
    2e5e:	9f 4f       	sbci	r25, 0xFF	; 255
    2e60:	08 95       	ret

Disassembly of section .text:

00002b88 <__floatunsisf>:
    2b88:	e8 94       	clt
    2b8a:	09 c0       	rjmp	.+18     	; 0x2b9e <__floatsisf+0x12>

00002b8c <__floatsisf>:
    2b8c:	97 fb       	bst	r25, 7
    2b8e:	3e f4       	brtc	.+14     	; 0x2b9e <__floatsisf+0x12>
    2b90:	90 95       	com	r25
    2b92:	80 95       	com	r24
    2b94:	70 95       	com	r23
    2b96:	61 95       	neg	r22
    2b98:	7f 4f       	sbci	r23, 0xFF	; 255
    2b9a:	8f 4f       	sbci	r24, 0xFF	; 255
    2b9c:	9f 4f       	sbci	r25, 0xFF	; 255
    2b9e:	99 23       	and	r25, r25
    2ba0:	a9 f0       	breq	.+42     	; 0x2bcc <__floatsisf+0x40>
    2ba2:	f9 2f       	mov	r31, r25
    2ba4:	96 e9       	ldi	r25, 0x96	; 150
    2ba6:	bb 27       	eor	r27, r27
    2ba8:	93 95       	inc	r25
    2baa:	f6 95       	lsr	r31
    2bac:	87 95       	ror	r24
    2bae:	77 95       	ror	r23
    2bb0:	67 95       	ror	r22
    2bb2:	b7 95       	ror	r27
    2bb4:	f1 11       	cpse	r31, r1
    2bb6:	f8 cf       	rjmp	.-16     	; 0x2ba8 <__floatsisf+0x1c>
    2bb8:	fa f4       	brpl	.+62     	; 0x2bf8 <__floatsisf+0x6c>
    2bba:	bb 0f       	add	r27, r27
    2bbc:	11 f4       	brne	.+4      	; 0x2bc2 <__floatsisf+0x36>
    2bbe:	60 ff       	sbrs	r22, 0
    2bc0:	1b c0       	rjmp	.+54     	; 0x2bf8 <__floatsisf+0x6c>
    2bc2:	6f 5f       	subi	r22, 0xFF	; 255
    2bc4:	7f 4f       	sbci	r23, 0xFF	; 255
    2bc6:	8f 4f       	sbci	r24, 0xFF	; 255
    2bc8:	9f 4f       	sbci	r25, 0xFF	; 255
    2bca:	16 c0       	rjmp	.+44     	; 0x2bf8 <__floatsisf+0x6c>
    2bcc:	88 23       	and	r24, r24
    2bce:	11 f0       	breq	.+4      	; 0x2bd4 <__floatsisf+0x48>
    2bd0:	96 e9       	ldi	r25, 0x96	; 150
    2bd2:	11 c0       	rjmp	.+34     	; 0x2bf6 <__floatsisf+0x6a>
    2bd4:	77 23       	and	r23, r23
    2bd6:	21 f0       	breq	.+8      	; 0x2be0 <__floatsisf+0x54>
    2bd8:	9e e8       	ldi	r25, 0x8E	; 142
    2bda:	87 2f       	mov	r24, r23
    2bdc:	76 2f       	mov	r23, r22
    2bde:	05 c0       	rjmp	.+10     	; 0x2bea <__floatsisf+0x5e>
    2be0:	66 23       	and	r22, r22
    2be2:	71 f0       	breq	.+28     	; 0x2c00 <__floatsisf+0x74>
    2be4:	96 e8       	ldi	r25, 0x86	; 134
    2be6:	86 2f       	mov	r24, r22
    2be8:	70 e0       	ldi	r23, 0x00	; 0
    2bea:	60 e0       	ldi	r22, 0x00	; 0
    2bec:	2a f0       	brmi	.+10     	; 0x2bf8 <__floatsisf+0x6c>
    2bee:	9a 95       	dec	r25
    2bf0:	66 0f       	add	r22, r22
    2bf2:	77 1f       	adc	r23, r23
    2bf4:	88 1f       	adc	r24, r24
    2bf6:	da f7       	brpl	.-10     	; 0x2bee <__floatsisf+0x62>
    2bf8:	88 0f       	add	r24, r24
    2bfa:	96 95       	lsr	r25
    2bfc:	87 95       	ror	r24
    2bfe:	97 f9       	bld	r25, 7
    2c00:	08 95       	ret

Disassembly of section .text:

00002f4e <__fp_cmp>:
    2f4e:	99 0f       	add	r25, r25
    2f50:	00 08       	sbc	r0, r0
    2f52:	55 0f       	add	r21, r21
    2f54:	aa 0b       	sbc	r26, r26
    2f56:	e0 e8       	ldi	r30, 0x80	; 128
    2f58:	fe ef       	ldi	r31, 0xFE	; 254
    2f5a:	16 16       	cp	r1, r22
    2f5c:	17 06       	cpc	r1, r23
    2f5e:	e8 07       	cpc	r30, r24
    2f60:	f9 07       	cpc	r31, r25
    2f62:	c0 f0       	brcs	.+48     	; 0x2f94 <__fp_cmp+0x46>
    2f64:	12 16       	cp	r1, r18
    2f66:	13 06       	cpc	r1, r19
    2f68:	e4 07       	cpc	r30, r20
    2f6a:	f5 07       	cpc	r31, r21
    2f6c:	98 f0       	brcs	.+38     	; 0x2f94 <__fp_cmp+0x46>
    2f6e:	62 1b       	sub	r22, r18
    2f70:	73 0b       	sbc	r23, r19
    2f72:	84 0b       	sbc	r24, r20
    2f74:	95 0b       	sbc	r25, r21
    2f76:	39 f4       	brne	.+14     	; 0x2f86 <__fp_cmp+0x38>
    2f78:	0a 26       	eor	r0, r26
    2f7a:	61 f0       	breq	.+24     	; 0x2f94 <__fp_cmp+0x46>
    2f7c:	23 2b       	or	r18, r19
    2f7e:	24 2b       	or	r18, r20
    2f80:	25 2b       	or	r18, r21
    2f82:	21 f4       	brne	.+8      	; 0x2f8c <__fp_cmp+0x3e>
    2f84:	08 95       	ret
    2f86:	0a 26       	eor	r0, r26
    2f88:	09 f4       	brne	.+2      	; 0x2f8c <__fp_cmp+0x3e>
    2f8a:	a1 40       	sbci	r26, 0x01	; 1
    2f8c:	a6 95       	lsr	r26
    2f8e:	8f ef       	ldi	r24, 0xFF	; 255
    2f90:	81 1d       	adc	r24, r1
    2f92:	81 1d       	adc	r24, r1
    2f94:	08 95       	ret

Disassembly of section .text:

00003470 <__fp_inf>:
    3470:	97 f9       	bld	r25, 7
    3472:	9f 67       	ori	r25, 0x7F	; 127
    3474:	80 e8       	ldi	r24, 0x80	; 128
    3476:	70 e0       	ldi	r23, 0x00	; 0
    3478:	60 e0       	ldi	r22, 0x00	; 0
    347a:	08 95       	ret

Disassembly of section .text:

000034c6 <__fp_nan>:
    34c6:	9f ef       	ldi	r25, 0xFF	; 255
    34c8:	80 ec       	ldi	r24, 0xC0	; 192
    34ca:	08 95       	ret

Disassembly of section .text:

0000343a <__fp_pscA>:
    343a:	00 24       	eor	r0, r0
    343c:	0a 94       	dec	r0
    343e:	16 16       	cp	r1, r22
    3440:	17 06       	cpc	r1, r23
    3442:	18 06       	cpc	r1, r24
    3444:	09 06       	cpc	r0, r25
    3446:	08 95       	ret

Disassembly of section .text:

00003448 <__fp_pscB>:
    3448:	00 24       	eor	r0, r0
    344a:	0a 94       	dec	r0
    344c:	12 16       	cp	r1, r18
    344e:	13 06       	cpc	r1, r19
    3450:	14 06       	cpc	r1, r20
    3452:	05 06       	cpc	r0, r21
    3454:	08 95       	ret

Disassembly of section .text:

0000330e <__fp_round>:
    330e:	09 2e       	mov	r0, r25
    3310:	03 94       	inc	r0
    3312:	00 0c       	add	r0, r0
    3314:	11 f4       	brne	.+4      	; 0x331a <__fp_round+0xc>
    3316:	88 23       	and	r24, r24
    3318:	52 f0       	brmi	.+20     	; 0x332e <__fp_round+0x20>
    331a:	bb 0f       	add	r27, r27
    331c:	40 f4       	brcc	.+16     	; 0x332e <__fp_round+0x20>
    331e:	bf 2b       	or	r27, r31
    3320:	11 f4       	brne	.+4      	; 0x3326 <__fp_round+0x18>
    3322:	60 ff       	sbrs	r22, 0
    3324:	04 c0       	rjmp	.+8      	; 0x332e <__fp_round+0x20>
    3326:	6f 5f       	subi	r22, 0xFF	; 255
    3328:	7f 4f       	sbci	r23, 0xFF	; 255
    332a:	8f 4f       	sbci	r24, 0xFF	; 255
    332c:	9f 4f       	sbci	r25, 0xFF	; 255
    332e:	08 95       	ret

Disassembly of section .text:

00002f96 <__fp_split3>:
    2f96:	57 fd       	sbrc	r21, 7
    2f98:	90 58       	subi	r25, 0x80	; 128
    2f9a:	44 0f       	add	r20, r20
    2f9c:	55 1f       	adc	r21, r21
    2f9e:	59 f0       	breq	.+22     	; 0x2fb6 <__fp_splitA+0x10>
    2fa0:	5f 3f       	cpi	r21, 0xFF	; 255
    2fa2:	71 f0       	breq	.+28     	; 0x2fc0 <__fp_splitA+0x1a>
    2fa4:	47 95       	ror	r20

00002fa6 <__fp_splitA>:
    2fa6:	88 0f       	add	r24, r24
    2fa8:	97 fb       	bst	r25, 7
    2faa:	99 1f       	adc	r25, r25
    2fac:	61 f0       	breq	.+24     	; 0x2fc6 <__fp_splitA+0x20>
    2fae:	9f 3f       	cpi	r25, 0xFF	; 255
    2fb0:	79 f0       	breq	.+30     	; 0x2fd0 <__fp_splitA+0x2a>
    2fb2:	87 95       	ror	r24
    2fb4:	08 95       	ret
    2fb6:	12 16       	cp	r1, r18
    2fb8:	13 06       	cpc	r1, r19
    2fba:	14 06       	cpc	r1, r20
    2fbc:	55 1f       	adc	r21, r21
    2fbe:	f2 cf       	rjmp	.-28     	; 0x2fa4 <__fp_split3+0xe>
    2fc0:	46 95       	lsr	r20
    2fc2:	f1 df       	rcall	.-30     	; 0x2fa6 <__fp_splitA>
    2fc4:	08 c0       	rjmp	.+16     	; 0x2fd6 <__fp_splitA+0x30>
    2fc6:	16 16       	cp	r1, r22
    2fc8:	17 06       	cpc	r1, r23
    2fca:	18 06       	cpc	r1, r24
    2fcc:	99 1f       	adc	r25, r25
    2fce:	f1 cf       	rjmp	.-30     	; 0x2fb2 <__fp_splitA+0xc>
    2fd0:	86 95       	lsr	r24
    2fd2:	71 05       	cpc	r23, r1
    2fd4:	61 05       	cpc	r22, r1
    2fd6:	08 94       	sec
    2fd8:	08 95       	ret

Disassembly of section .text:

00003456 <__fp_zero>:
    3456:	e8 94       	clt

00003458 <__fp_szero>:
    3458:	bb 27       	eor	r27, r27
    345a:	66 27       	eor	r22, r22
    345c:	77 27       	eor	r23, r23
    345e:	cb 01       	movw	r24, r22
    3460:	97 f9       	bld	r25, 7
    3462:	08 95       	ret

Disassembly of section .text:

0000349c <__gesf2>:
    349c:	0e 94 a7 17 	call	0x2f4e	; 0x2f4e <__fp_cmp>
    34a0:	08 f4       	brcc	.+2      	; 0x34a4 <__gesf2+0x8>
    34a2:	8f ef       	ldi	r24, 0xFF	; 255
    34a4:	08 95       	ret

Disassembly of section .text.libgcc:

0000347c <__tablejump2__>:
    347c:	ee 0f       	add	r30, r30
    347e:	ff 1f       	adc	r31, r31
    3480:	05 90       	lpm	r0, Z+
    3482:	f4 91       	lpm	r31, Z
    3484:	e0 2d       	mov	r30, r0
    3486:	09 94       	ijmp

Disassembly of section .text.__dummy_fini:

000034e6 <_fini>:
    34e6:	08 95       	ret

Disassembly of section .text.__dummy_funcs_on_exit:

000034e8 <__funcs_on_exit>:
    34e8:	08 95       	ret

Disassembly of section .text.__dummy_simulator_exit:

000034ea <__simulator_exit>:
    34ea:	08 95       	ret

Disassembly of section .text.exit:

000033c4 <exit>:
    33c4:	ec 01       	movw	r28, r24
    33c6:	0e 94 74 1a 	call	0x34e8	; 0x34e8 <__funcs_on_exit>
    33ca:	0e 94 73 1a 	call	0x34e6	; 0x34e6 <_fini>
    33ce:	ce 01       	movw	r24, r28
    33d0:	0e 94 75 1a 	call	0x34ea	; 0x34ea <__simulator_exit>
    33d4:	ce 01       	movw	r24, r28
    33d6:	0e 94 71 1a 	call	0x34e2	; 0x34e2 <_Exit>

Disassembly of section .text.__wrap_sprintf:

000032e8 <_sprintf_eE>:
    32e8:	a0 e0       	ldi	r26, 0x00	; 0
    32ea:	b0 e0       	ldi	r27, 0x00	; 0
    32ec:	ea e7       	ldi	r30, 0x7A	; 122
    32ee:	f9 e1       	ldi	r31, 0x19	; 25
    32f0:	0c 94 b4 18 	jmp	0x3168	; 0x3168 <__prologue_saves__+0x20>
    32f4:	9e 01       	movw	r18, r28
    32f6:	26 5f       	subi	r18, 0xF6	; 246
    32f8:	3f 4f       	sbci	r19, 0xFF	; 255
    32fa:	4f 81       	ldd	r20, Y+7	; 0x07
    32fc:	58 85       	ldd	r21, Y+8	; 0x08
    32fe:	69 85       	ldd	r22, Y+9	; 0x09
    3300:	8d 81       	ldd	r24, Y+5	; 0x05
    3302:	9e 81       	ldd	r25, Y+6	; 0x06
    3304:	0e 94 b3 19 	call	0x3366	; 0x3366 <__vsprintf>
    3308:	e2 e0       	ldi	r30, 0x02	; 2
    330a:	0c 94 d0 18 	jmp	0x31a0	; 0x31a0 <__epilogue_restores__+0x20>

Disassembly of section .text.__fmt_fp:

00000cda <__fmt_fp>:
     cda:	a6 e2       	ldi	r26, 0x26	; 38
     cdc:	b0 e0       	ldi	r27, 0x00	; 0
     cde:	e3 e7       	ldi	r30, 0x73	; 115
     ce0:	f6 e0       	ldi	r31, 0x06	; 6
     ce2:	0c 94 a4 18 	jmp	0x3148	; 0x3148 <__prologue_saves__>
     ce6:	9f 8f       	std	Y+31, r25	; 0x1f
     ce8:	8e 8f       	std	Y+30, r24	; 0x1e
     cea:	79 8f       	std	Y+25, r23	; 0x19
     cec:	68 8f       	std	Y+24, r22	; 0x18
     cee:	12 2f       	mov	r17, r18
     cf0:	fb 01       	movw	r30, r22
     cf2:	01 90       	ld	r0, Z+
     cf4:	f0 81       	ld	r31, Z
     cf6:	e0 2d       	mov	r30, r0
     cf8:	fa 87       	std	Y+10, r31	; 0x0a
     cfa:	e9 87       	std	Y+9, r30	; 0x09
     cfc:	fb 01       	movw	r30, r22
     cfe:	c2 80       	ldd	r12, Z+2	; 0x02
     d00:	d3 80       	ldd	r13, Z+3	; 0x03
     d02:	24 81       	ldd	r18, Z+4	; 0x04
     d04:	35 81       	ldd	r19, Z+5	; 0x05
     d06:	3c 8b       	std	Y+20, r19	; 0x14
     d08:	2b 8b       	std	Y+19, r18	; 0x13
     d0a:	80 85       	ldd	r24, Z+8	; 0x08
     d0c:	91 85       	ldd	r25, Z+9	; 0x09
     d0e:	99 a3       	std	Y+33, r25	; 0x21
     d10:	88 a3       	std	Y+32, r24	; 0x20
     d12:	06 80       	ldd	r0, Z+6	; 0x06
     d14:	f7 81       	ldd	r31, Z+7	; 0x07
     d16:	e0 2d       	mov	r30, r0
     d18:	fa 83       	std	Y+2, r31	; 0x02
     d1a:	e9 83       	std	Y+1, r30	; 0x01
     d1c:	fa 01       	movw	r30, r20
     d1e:	80 80       	ld	r8, Z
     d20:	91 80       	ldd	r9, Z+1	; 0x01
     d22:	a2 80       	ldd	r10, Z+2	; 0x02
     d24:	b3 80       	ldd	r11, Z+3	; 0x03
     d26:	20 e0       	ldi	r18, 0x00	; 0
     d28:	30 e0       	ldi	r19, 0x00	; 0
     d2a:	a9 01       	movw	r20, r18
     d2c:	c5 01       	movw	r24, r10
     d2e:	b4 01       	movw	r22, r8
     d30:	0e 94 49 1a 	call	0x3492	; 0x3492 <__cmpsf2>
     d34:	87 ff       	sbrs	r24, 7
     d36:	06 c0       	rjmp	.+12     	; 0xd44 <__fmt_fp+0x6a>
     d38:	b7 fa       	bst	r11, 7
     d3a:	b0 94       	com	r11
     d3c:	b7 f8       	bld	r11, 7
     d3e:	b0 94       	com	r11
     d40:	8d e2       	ldi	r24, 0x2D	; 45
     d42:	04 c0       	rjmp	.+8      	; 0xd4c <__fmt_fp+0x72>
     d44:	f9 85       	ldd	r31, Y+9	; 0x09
     d46:	f2 ff       	sbrs	r31, 2
     d48:	0c c3       	rjmp	.+1560   	; 0x1362 <__fmt_fp+0x688>
     d4a:	8b e2       	ldi	r24, 0x2B	; 43
     d4c:	e9 81       	ldd	r30, Y+1	; 0x01
     d4e:	fa 81       	ldd	r31, Y+2	; 0x02
     d50:	80 83       	st	Z, r24
     d52:	2b 89       	ldd	r18, Y+19	; 0x13
     d54:	3c 89       	ldd	r19, Y+20	; 0x14
     d56:	21 50       	subi	r18, 0x01	; 1
     d58:	31 09       	sbc	r19, r1
     d5a:	38 87       	std	Y+8, r19	; 0x08
     d5c:	2f 83       	std	Y+7, r18	; 0x07
     d5e:	41 e0       	ldi	r20, 0x01	; 1
     d60:	50 e0       	ldi	r21, 0x00	; 0
     d62:	5a 8b       	std	Y+18, r21	; 0x12
     d64:	49 8b       	std	Y+17, r20	; 0x11
     d66:	06 c0       	rjmp	.+12     	; 0xd74 <__fmt_fp+0x9a>
     d68:	8b 89       	ldd	r24, Y+19	; 0x13
     d6a:	9c 89       	ldd	r25, Y+20	; 0x14
     d6c:	98 87       	std	Y+8, r25	; 0x08
     d6e:	8f 83       	std	Y+7, r24	; 0x07
     d70:	1a 8a       	std	Y+18, r1	; 0x12
     d72:	19 8a       	std	Y+17, r1	; 0x11
     d74:	d5 01       	movw	r26, r10
     d76:	c4 01       	movw	r24, r8
     d78:	bf 77       	andi	r27, 0x7F	; 127
     d7a:	00 97       	sbiw	r24, 0x00	; 0
     d7c:	e0 e8       	ldi	r30, 0x80	; 128
     d7e:	ae 07       	cpc	r26, r30
     d80:	ef e7       	ldi	r30, 0x7F	; 127
     d82:	be 07       	cpc	r27, r30
     d84:	d9 f4       	brne	.+54     	; 0xdbc <__fmt_fp+0xe2>
     d86:	21 2f       	mov	r18, r17
     d88:	11 0f       	add	r17, r17
     d8a:	33 0b       	sbc	r19, r19
     d8c:	21 54       	subi	r18, 0x41	; 65
     d8e:	31 09       	sbc	r19, r1
     d90:	89 81       	ldd	r24, Y+1	; 0x01
     d92:	9a 81       	ldd	r25, Y+2	; 0x02
     d94:	49 89       	ldd	r20, Y+17	; 0x11
     d96:	5a 89       	ldd	r21, Y+18	; 0x12
     d98:	84 0f       	add	r24, r20
     d9a:	95 1f       	adc	r25, r21
     d9c:	2a 31       	cpi	r18, 0x1A	; 26
     d9e:	31 05       	cpc	r19, r1
     da0:	20 f4       	brcc	.+8      	; 0xdaa <__fmt_fp+0xd0>
     da2:	42 ea       	ldi	r20, 0xA2	; 162
     da4:	54 e0       	ldi	r21, 0x04	; 4
     da6:	60 e0       	ldi	r22, 0x00	; 0
     da8:	03 c0       	rjmp	.+6      	; 0xdb0 <__fmt_fp+0xd6>
     daa:	46 ea       	ldi	r20, 0xA6	; 166
     dac:	54 e0       	ldi	r21, 0x04	; 4
     dae:	60 e0       	ldi	r22, 0x00	; 0
     db0:	0e 94 98 19 	call	0x3330	; 0x3330 <strcpy>
     db4:	66 ea       	ldi	r22, 0xA6	; 166
     db6:	74 e0       	ldi	r23, 0x04	; 4
     db8:	80 e0       	ldi	r24, 0x00	; 0
     dba:	1e c0       	rjmp	.+60     	; 0xdf8 <__fmt_fp+0x11e>
     dbc:	01 97       	sbiw	r24, 0x01	; 1
     dbe:	a0 48       	sbci	r26, 0x80	; 128
     dc0:	bf 47       	sbci	r27, 0x7F	; 127
     dc2:	30 f1       	brcs	.+76     	; 0xe10 <__fmt_fp+0x136>
     dc4:	21 2f       	mov	r18, r17
     dc6:	11 0f       	add	r17, r17
     dc8:	33 0b       	sbc	r19, r19
     dca:	21 54       	subi	r18, 0x41	; 65
     dcc:	31 09       	sbc	r19, r1
     dce:	89 81       	ldd	r24, Y+1	; 0x01
     dd0:	9a 81       	ldd	r25, Y+2	; 0x02
     dd2:	49 89       	ldd	r20, Y+17	; 0x11
     dd4:	5a 89       	ldd	r21, Y+18	; 0x12
     dd6:	84 0f       	add	r24, r20
     dd8:	95 1f       	adc	r25, r21
     dda:	2a 31       	cpi	r18, 0x1A	; 26
     ddc:	31 05       	cpc	r19, r1
     dde:	20 f4       	brcc	.+8      	; 0xde8 <__fmt_fp+0x10e>
     de0:	4a ea       	ldi	r20, 0xAA	; 170
     de2:	54 e0       	ldi	r21, 0x04	; 4
     de4:	60 e0       	ldi	r22, 0x00	; 0
     de6:	03 c0       	rjmp	.+6      	; 0xdee <__fmt_fp+0x114>
     de8:	4e ea       	ldi	r20, 0xAE	; 174
     dea:	54 e0       	ldi	r21, 0x04	; 4
     dec:	60 e0       	ldi	r22, 0x00	; 0
     dee:	0e 94 98 19 	call	0x3330	; 0x3330 <strcpy>
     df2:	6e ea       	ldi	r22, 0xAE	; 174
     df4:	74 e0       	ldi	r23, 0x04	; 4
     df6:	80 e0       	ldi	r24, 0x00	; 0
     df8:	0e 94 36 19 	call	0x326c	; 0x326c <strlen>
     dfc:	e9 81       	ldd	r30, Y+1	; 0x01
     dfe:	fa 81       	ldd	r31, Y+2	; 0x02
     e00:	af 01       	movw	r20, r30
     e02:	60 e8       	ldi	r22, 0x80	; 128
     e04:	e9 84       	ldd	r14, Y+9	; 0x09
     e06:	fa 84       	ldd	r15, Y+10	; 0x0a
     e08:	0b 89       	ldd	r16, Y+19	; 0x13
     e0a:	1c 89       	ldd	r17, Y+20	; 0x14
     e0c:	9c 01       	movw	r18, r24
     e0e:	a1 c2       	rjmp	.+1346   	; 0x1352 <__fmt_fp+0x678>
     e10:	20 e0       	ldi	r18, 0x00	; 0
     e12:	30 e0       	ldi	r19, 0x00	; 0
     e14:	a9 01       	movw	r20, r18
     e16:	c5 01       	movw	r24, r10
     e18:	b4 01       	movw	r22, r8
     e1a:	0e 94 49 1a 	call	0x3492	; 0x3492 <__cmpsf2>
     e1e:	1b 82       	std	Y+3, r1	; 0x03
     e20:	1c 82       	std	Y+4, r1	; 0x04
     e22:	88 23       	and	r24, r24
     e24:	09 f4       	brne	.+2      	; 0xe28 <__fmt_fp+0x14e>
     e26:	67 c0       	rjmp	.+206    	; 0xef6 <__fmt_fp+0x21c>
     e28:	f0 e8       	ldi	r31, 0x80	; 128
     e2a:	fd 83       	std	Y+5, r31	; 0x05
     e2c:	2f e3       	ldi	r18, 0x3F	; 63
     e2e:	2e 83       	std	Y+6, r18	; 0x06
     e30:	21 2c       	mov	r2, r1
     e32:	31 2c       	mov	r3, r1
     e34:	20 e0       	ldi	r18, 0x00	; 0
     e36:	30 e0       	ldi	r19, 0x00	; 0
     e38:	40 e2       	ldi	r20, 0x20	; 32
     e3a:	51 e4       	ldi	r21, 0x41	; 65
     e3c:	6b 81       	ldd	r22, Y+3	; 0x03
     e3e:	7c 81       	ldd	r23, Y+4	; 0x04
     e40:	8d 81       	ldd	r24, Y+5	; 0x05
     e42:	9e 81       	ldd	r25, Y+6	; 0x06
     e44:	0e 94 5f 1a 	call	0x34be	; 0x34be <__mulsf3>
     e48:	f6 2e       	mov	r15, r22
     e4a:	07 2f       	mov	r16, r23
     e4c:	8d 87       	std	Y+13, r24	; 0x0d
     e4e:	9b 87       	std	Y+11, r25	; 0x0b
     e50:	a5 01       	movw	r20, r10
     e52:	94 01       	movw	r18, r8
     e54:	0e 94 4e 1a 	call	0x349c	; 0x349c <__gesf2>
     e58:	18 16       	cp	r1, r24
     e5a:	54 f0       	brlt	.+20     	; 0xe70 <__fmt_fp+0x196>
     e5c:	3f ef       	ldi	r19, 0xFF	; 255
     e5e:	23 1a       	sub	r2, r19
     e60:	33 0a       	sbc	r3, r19
     e62:	fb 82       	std	Y+3, r15	; 0x03
     e64:	0c 83       	std	Y+4, r16	; 0x04
     e66:	4d 85       	ldd	r20, Y+13	; 0x0d
     e68:	4d 83       	std	Y+5, r20	; 0x05
     e6a:	5b 85       	ldd	r21, Y+11	; 0x0b
     e6c:	5e 83       	std	Y+6, r21	; 0x06
     e6e:	e2 cf       	rjmp	.-60     	; 0xe34 <__fmt_fp+0x15a>
     e70:	1c 86       	std	Y+12, r1	; 0x0c
     e72:	1b 86       	std	Y+11, r1	; 0x0b
     e74:	2b 81       	ldd	r18, Y+3	; 0x03
     e76:	3c 81       	ldd	r19, Y+4	; 0x04
     e78:	4d 81       	ldd	r20, Y+5	; 0x05
     e7a:	5e 81       	ldd	r21, Y+6	; 0x06
     e7c:	c5 01       	movw	r24, r10
     e7e:	b4 01       	movw	r22, r8
     e80:	0e 94 49 1a 	call	0x3492	; 0x3492 <__cmpsf2>
     e84:	87 ff       	sbrs	r24, 7
     e86:	3d c0       	rjmp	.+122    	; 0xf02 <__fmt_fp+0x228>
     e88:	84 ed       	ldi	r24, 0xD4	; 212
     e8a:	28 16       	cp	r2, r24
     e8c:	8e ef       	ldi	r24, 0xFE	; 254
     e8e:	38 06       	cpc	r3, r24
     e90:	04 f5       	brge	.+64     	; 0xed2 <__fmt_fp+0x1f8>
     e92:	eb 85       	ldd	r30, Y+11	; 0x0b
     e94:	fc 85       	ldd	r31, Y+12	; 0x0c
     e96:	ef 2b       	or	r30, r31
     e98:	e1 f4       	brne	.+56     	; 0xed2 <__fmt_fp+0x1f8>
     e9a:	20 e0       	ldi	r18, 0x00	; 0
     e9c:	30 e0       	ldi	r19, 0x00	; 0
     e9e:	40 e8       	ldi	r20, 0x80	; 128
     ea0:	5a e5       	ldi	r21, 0x5A	; 90
     ea2:	c5 01       	movw	r24, r10
     ea4:	b4 01       	movw	r22, r8
     ea6:	0e 94 5f 1a 	call	0x34be	; 0x34be <__mulsf3>
     eaa:	4b 01       	movw	r8, r22
     eac:	5c 01       	movw	r10, r24
     eae:	20 e0       	ldi	r18, 0x00	; 0
     eb0:	30 e0       	ldi	r19, 0x00	; 0
     eb2:	40 e8       	ldi	r20, 0x80	; 128
     eb4:	5a e5       	ldi	r21, 0x5A	; 90
     eb6:	6b 81       	ldd	r22, Y+3	; 0x03
     eb8:	7c 81       	ldd	r23, Y+4	; 0x04
     eba:	8d 81       	ldd	r24, Y+5	; 0x05
     ebc:	9e 81       	ldd	r25, Y+6	; 0x06
     ebe:	0e 94 5f 1a 	call	0x34be	; 0x34be <__mulsf3>
     ec2:	6b 83       	std	Y+3, r22	; 0x03
     ec4:	7c 83       	std	Y+4, r23	; 0x04
     ec6:	8d 83       	std	Y+5, r24	; 0x05
     ec8:	9e 83       	std	Y+6, r25	; 0x06
     eca:	21 e0       	ldi	r18, 0x01	; 1
     ecc:	30 e0       	ldi	r19, 0x00	; 0
     ece:	3c 87       	std	Y+12, r19	; 0x0c
     ed0:	2b 87       	std	Y+11, r18	; 0x0b
     ed2:	20 e0       	ldi	r18, 0x00	; 0
     ed4:	30 e0       	ldi	r19, 0x00	; 0
     ed6:	40 e2       	ldi	r20, 0x20	; 32
     ed8:	51 e4       	ldi	r21, 0x41	; 65
     eda:	6b 81       	ldd	r22, Y+3	; 0x03
     edc:	7c 81       	ldd	r23, Y+4	; 0x04
     ede:	8d 81       	ldd	r24, Y+5	; 0x05
     ee0:	9e 81       	ldd	r25, Y+6	; 0x06
     ee2:	0e 94 5b 1a 	call	0x34b6	; 0x34b6 <__divsf3>
     ee6:	6b 83       	std	Y+3, r22	; 0x03
     ee8:	7c 83       	std	Y+4, r23	; 0x04
     eea:	8d 83       	std	Y+5, r24	; 0x05
     eec:	9e 83       	std	Y+6, r25	; 0x06
     eee:	31 e0       	ldi	r19, 0x01	; 1
     ef0:	23 1a       	sub	r2, r19
     ef2:	31 08       	sbc	r3, r1
     ef4:	bf cf       	rjmp	.-130    	; 0xe74 <__fmt_fp+0x19a>
     ef6:	40 e8       	ldi	r20, 0x80	; 128
     ef8:	4d 83       	std	Y+5, r20	; 0x05
     efa:	5f e3       	ldi	r21, 0x3F	; 63
     efc:	5e 83       	std	Y+6, r21	; 0x06
     efe:	21 2c       	mov	r2, r1
     f00:	31 2c       	mov	r3, r1
     f02:	81 2f       	mov	r24, r17
     f04:	11 0f       	add	r17, r17
     f06:	99 0b       	sbc	r25, r25
     f08:	9b a3       	std	Y+35, r25	; 0x23
     f0a:	8a a3       	std	Y+34, r24	; 0x22
     f0c:	0e 94 07 1a 	call	0x340e	; 0x340e <tolower>
     f10:	8b 8f       	std	Y+27, r24	; 0x1b
     f12:	d7 fc       	sbrc	r13, 7
     f14:	03 c0       	rjmp	.+6      	; 0xf1c <__fmt_fp+0x242>
     f16:	de a2       	std	Y+38, r13	; 0x26
     f18:	cd a2       	std	Y+37, r12	; 0x25
     f1a:	04 c0       	rjmp	.+8      	; 0xf24 <__fmt_fp+0x24a>
     f1c:	e6 e0       	ldi	r30, 0x06	; 6
     f1e:	f0 e0       	ldi	r31, 0x00	; 0
     f20:	fe a3       	std	Y+38, r31	; 0x26
     f22:	ed a3       	std	Y+37, r30	; 0x25
     f24:	fb 8d       	ldd	r31, Y+27	; 0x1b
     f26:	f7 36       	cpi	r31, 0x67	; 103
     f28:	41 f4       	brne	.+16     	; 0xf3a <__fmt_fp+0x260>
     f2a:	cd 28       	or	r12, r13
     f2c:	09 f0       	breq	.+2      	; 0xf30 <__fmt_fp+0x256>
     f2e:	1e c2       	rjmp	.+1084   	; 0x136c <__fmt_fp+0x692>
     f30:	21 e0       	ldi	r18, 0x01	; 1
     f32:	30 e0       	ldi	r19, 0x00	; 0
     f34:	3e a3       	std	Y+38, r19	; 0x26
     f36:	2d a3       	std	Y+37, r18	; 0x25
     f38:	19 c2       	rjmp	.+1074   	; 0x136c <__fmt_fp+0x692>
     f3a:	8b 8d       	ldd	r24, Y+27	; 0x1b
     f3c:	8d 8b       	std	Y+21, r24	; 0x15
     f3e:	04 c0       	rjmp	.+8      	; 0xf48 <__fmt_fp+0x26e>
     f40:	37 fe       	sbrs	r3, 7
     f42:	25 c2       	rjmp	.+1098   	; 0x138e <__fmt_fp+0x6b4>
     f44:	96 e6       	ldi	r25, 0x66	; 102
     f46:	9d 8b       	std	Y+21, r25	; 0x15
     f48:	ed a1       	ldd	r30, Y+37	; 0x25
     f4a:	fe a1       	ldd	r31, Y+38	; 0x26
     f4c:	31 96       	adiw	r30, 0x01	; 1
     f4e:	fe a3       	std	Y+38, r31	; 0x26
     f50:	ed a3       	std	Y+37, r30	; 0x25
     f52:	fd 89       	ldd	r31, Y+21	; 0x15
     f54:	f6 36       	cpi	r31, 0x66	; 102
     f56:	99 f4       	brne	.+38     	; 0xf7e <__fmt_fp+0x2a4>
     f58:	37 fe       	sbrs	r3, 7
     f5a:	08 c0       	rjmp	.+16     	; 0xf6c <__fmt_fp+0x292>
     f5c:	1b 82       	std	Y+3, r1	; 0x03
     f5e:	1c 82       	std	Y+4, r1	; 0x04
     f60:	20 e8       	ldi	r18, 0x80	; 128
     f62:	2d 83       	std	Y+5, r18	; 0x05
     f64:	3f e3       	ldi	r19, 0x3F	; 63
     f66:	3e 83       	std	Y+6, r19	; 0x06
     f68:	21 2c       	mov	r2, r1
     f6a:	31 2c       	mov	r3, r1
     f6c:	4b 8d       	ldd	r20, Y+27	; 0x1b
     f6e:	47 36       	cpi	r20, 0x67	; 103
     f70:	31 f0       	breq	.+12     	; 0xf7e <__fmt_fp+0x2a4>
     f72:	8d a1       	ldd	r24, Y+37	; 0x25
     f74:	9e a1       	ldd	r25, Y+38	; 0x26
     f76:	82 0d       	add	r24, r2
     f78:	93 1d       	adc	r25, r3
     f7a:	9e a3       	std	Y+38, r25	; 0x26
     f7c:	8d a3       	std	Y+37, r24	; 0x25
     f7e:	9b 81       	ldd	r25, Y+3	; 0x03
     f80:	9b 87       	std	Y+11, r25	; 0x0b
     f82:	ec 81       	ldd	r30, Y+4	; 0x04
     f84:	ed 87       	std	Y+13, r30	; 0x0d
     f86:	fd 81       	ldd	r31, Y+5	; 0x05
     f88:	fe 8b       	std	Y+22, r31	; 0x16
     f8a:	2e 81       	ldd	r18, Y+6	; 0x06
     f8c:	2a 8f       	std	Y+26, r18	; 0x1a
     f8e:	75 01       	movw	r14, r10
     f90:	64 01       	movw	r12, r8
     f92:	1d 8e       	std	Y+29, r1	; 0x1d
     f94:	1c 8e       	std	Y+28, r1	; 0x1c
     f96:	8c 8d       	ldd	r24, Y+28	; 0x1c
     f98:	9d 8d       	ldd	r25, Y+29	; 0x1d
     f9a:	ed a1       	ldd	r30, Y+37	; 0x25
     f9c:	fe a1       	ldd	r31, Y+38	; 0x26
     f9e:	8e 17       	cp	r24, r30
     fa0:	9f 07       	cpc	r25, r31
     fa2:	c1 f1       	breq	.+112    	; 0x1014 <__fmt_fp+0x33a>
     fa4:	2b 85       	ldd	r18, Y+11	; 0x0b
     fa6:	3d 85       	ldd	r19, Y+13	; 0x0d
     fa8:	4e 89       	ldd	r20, Y+22	; 0x16
     faa:	5a 8d       	ldd	r21, Y+26	; 0x1a
     fac:	c7 01       	movw	r24, r14
     fae:	b6 01       	movw	r22, r12
     fb0:	0e 94 5b 1a 	call	0x34b6	; 0x34b6 <__divsf3>
     fb4:	0e 94 0c 0f 	call	0x1e18	; 0x1e18 <floorf>
     fb8:	2b 01       	movw	r4, r22
     fba:	3c 01       	movw	r6, r24
     fbc:	0e 94 16 1a 	call	0x342c	; 0x342c <__fixsfsi>
     fc0:	6c a3       	std	Y+36, r22	; 0x24
     fc2:	87 01       	movw	r16, r14
     fc4:	76 01       	movw	r14, r12
     fc6:	17 fb       	bst	r17, 7
     fc8:	10 95       	com	r17
     fca:	17 f9       	bld	r17, 7
     fcc:	10 95       	com	r17
     fce:	2b 85       	ldd	r18, Y+11	; 0x0b
     fd0:	3d 85       	ldd	r19, Y+13	; 0x0d
     fd2:	4e 89       	ldd	r20, Y+22	; 0x16
     fd4:	5a 8d       	ldd	r21, Y+26	; 0x1a
     fd6:	c3 01       	movw	r24, r6
     fd8:	b2 01       	movw	r22, r4
     fda:	0e 94 6e 0e 	call	0x1cdc	; 0x1cdc <fmaf>
     fde:	6b 01       	movw	r12, r22
     fe0:	7c 01       	movw	r14, r24
     fe2:	f7 fa       	bst	r15, 7
     fe4:	f0 94       	com	r15
     fe6:	f7 f8       	bld	r15, 7
     fe8:	f0 94       	com	r15
     fea:	20 e0       	ldi	r18, 0x00	; 0
     fec:	30 e0       	ldi	r19, 0x00	; 0
     fee:	40 e2       	ldi	r20, 0x20	; 32
     ff0:	51 e4       	ldi	r21, 0x41	; 65
     ff2:	6b 85       	ldd	r22, Y+11	; 0x0b
     ff4:	7d 85       	ldd	r23, Y+13	; 0x0d
     ff6:	8e 89       	ldd	r24, Y+22	; 0x16
     ff8:	9a 8d       	ldd	r25, Y+26	; 0x1a
     ffa:	0e 94 5b 1a 	call	0x34b6	; 0x34b6 <__divsf3>
     ffe:	6b 87       	std	Y+11, r22	; 0x0b
    1000:	7d 87       	std	Y+13, r23	; 0x0d
    1002:	8e 8b       	std	Y+22, r24	; 0x16
    1004:	9a 8f       	std	Y+26, r25	; 0x1a
    1006:	4c 8d       	ldd	r20, Y+28	; 0x1c
    1008:	5d 8d       	ldd	r21, Y+29	; 0x1d
    100a:	4f 5f       	subi	r20, 0xFF	; 255
    100c:	5f 4f       	sbci	r21, 0xFF	; 255
    100e:	5d 8f       	std	Y+29, r21	; 0x1d
    1010:	4c 8f       	std	Y+28, r20	; 0x1c
    1012:	c1 cf       	rjmp	.-126    	; 0xf96 <__fmt_fp+0x2bc>
    1014:	20 e0       	ldi	r18, 0x00	; 0
    1016:	30 e0       	ldi	r19, 0x00	; 0
    1018:	40 ea       	ldi	r20, 0xA0	; 160
    101a:	50 e4       	ldi	r21, 0x40	; 64
    101c:	6b 85       	ldd	r22, Y+11	; 0x0b
    101e:	7d 85       	ldd	r23, Y+13	; 0x0d
    1020:	8e 89       	ldd	r24, Y+22	; 0x16
    1022:	9a 8d       	ldd	r25, Y+26	; 0x1a
    1024:	0e 94 5f 1a 	call	0x34be	; 0x34be <__mulsf3>
    1028:	2b 01       	movw	r4, r22
    102a:	3c 01       	movw	r6, r24
    102c:	9b 01       	movw	r18, r22
    102e:	ac 01       	movw	r20, r24
    1030:	c7 01       	movw	r24, r14
    1032:	b6 01       	movw	r22, r12
    1034:	0e 94 49 1a 	call	0x3492	; 0x3492 <__cmpsf2>
    1038:	87 fd       	sbrc	r24, 7
    103a:	0b c0       	rjmp	.+22     	; 0x1052 <__fmt_fp+0x378>
    103c:	a3 01       	movw	r20, r6
    103e:	92 01       	movw	r18, r4
    1040:	c7 01       	movw	r24, r14
    1042:	b6 01       	movw	r22, r12
    1044:	0e 94 49 1a 	call	0x3492	; 0x3492 <__cmpsf2>
    1048:	81 11       	cpse	r24, r1
    104a:	06 c0       	rjmp	.+12     	; 0x1058 <__fmt_fp+0x37e>
    104c:	fc a1       	ldd	r31, Y+36	; 0x24
    104e:	f0 fd       	sbrc	r31, 0
    1050:	03 c0       	rjmp	.+6      	; 0x1058 <__fmt_fp+0x37e>
    1052:	41 2c       	mov	r4, r1
    1054:	51 2c       	mov	r5, r1
    1056:	32 01       	movw	r6, r4
    1058:	a3 01       	movw	r20, r6
    105a:	92 01       	movw	r18, r4
    105c:	c5 01       	movw	r24, r10
    105e:	b4 01       	movw	r22, r8
    1060:	0e 94 10 1a 	call	0x3420	; 0x3420 <__addsf3>
    1064:	4b 01       	movw	r8, r22
    1066:	5c 01       	movw	r10, r24
    1068:	2d 89       	ldd	r18, Y+21	; 0x15
    106a:	25 36       	cpi	r18, 0x65	; 101
    106c:	11 f0       	breq	.+4      	; 0x1072 <__fmt_fp+0x398>
    106e:	31 01       	movw	r6, r2
    1070:	02 c0       	rjmp	.+4      	; 0x1076 <__fmt_fp+0x39c>
    1072:	61 2c       	mov	r6, r1
    1074:	71 2c       	mov	r7, r1
    1076:	23 01       	movw	r4, r6
    1078:	4d a1       	ldd	r20, Y+37	; 0x25
    107a:	5e a1       	ldd	r21, Y+38	; 0x26
    107c:	44 1a       	sub	r4, r20
    107e:	55 0a       	sbc	r5, r21
    1080:	c9 88       	ldd	r12, Y+17	; 0x11
    1082:	da 88       	ldd	r13, Y+18	; 0x12
    1084:	00 e0       	ldi	r16, 0x00	; 0
    1086:	10 e0       	ldi	r17, 0x00	; 0
    1088:	1c 86       	std	Y+12, r1	; 0x0c
    108a:	1b 86       	std	Y+11, r1	; 0x0b
    108c:	89 85       	ldd	r24, Y+9	; 0x09
    108e:	9a 85       	ldd	r25, Y+10	; 0x0a
    1090:	80 71       	andi	r24, 0x10	; 16
    1092:	99 27       	eor	r25, r25
    1094:	9f 8b       	std	Y+23, r25	; 0x17
    1096:	8e 8b       	std	Y+22, r24	; 0x16
    1098:	64 14       	cp	r6, r4
    109a:	75 04       	cpc	r7, r5
    109c:	31 f4       	brne	.+12     	; 0x10aa <__fmt_fp+0x3d0>
    109e:	8b 85       	ldd	r24, Y+11	; 0x0b
    10a0:	9c 85       	ldd	r25, Y+12	; 0x0c
    10a2:	89 2b       	or	r24, r25
    10a4:	09 f4       	brne	.+2      	; 0x10a8 <__fmt_fp+0x3ce>
    10a6:	9a c0       	rjmp	.+308    	; 0x11dc <__fmt_fp+0x502>
    10a8:	a6 c0       	rjmp	.+332    	; 0x11f6 <__fmt_fp+0x51c>
    10aa:	dd 8e       	std	Y+29, r13	; 0x1d
    10ac:	cc 8e       	std	Y+28, r12	; 0x1c
    10ae:	e8 8d       	ldd	r30, Y+24	; 0x18
    10b0:	f9 8d       	ldd	r31, Y+25	; 0x19
    10b2:	80 85       	ldd	r24, Z+8	; 0x08
    10b4:	91 85       	ldd	r25, Z+9	; 0x09
    10b6:	05 97       	sbiw	r24, 0x05	; 5
    10b8:	c8 16       	cp	r12, r24
    10ba:	d9 06       	cpc	r13, r25
    10bc:	80 f7       	brcc	.-32     	; 0x109e <__fmt_fp+0x3c4>
    10be:	2b 81       	ldd	r18, Y+3	; 0x03
    10c0:	3c 81       	ldd	r19, Y+4	; 0x04
    10c2:	4d 81       	ldd	r20, Y+5	; 0x05
    10c4:	5e 81       	ldd	r21, Y+6	; 0x06
    10c6:	c5 01       	movw	r24, r10
    10c8:	b4 01       	movw	r22, r8
    10ca:	0e 94 5b 1a 	call	0x34b6	; 0x34b6 <__divsf3>
    10ce:	0e 94 0c 0f 	call	0x1e18	; 0x1e18 <floorf>
    10d2:	6d 87       	std	Y+13, r22	; 0x0d
    10d4:	7e 87       	std	Y+14, r23	; 0x0e
    10d6:	8f 87       	std	Y+15, r24	; 0x0f
    10d8:	98 8b       	std	Y+16, r25	; 0x10
    10da:	0e 94 16 1a 	call	0x342c	; 0x342c <__fixsfsi>
    10de:	cb 01       	movw	r24, r22
    10e0:	ee 89       	ldd	r30, Y+22	; 0x16
    10e2:	ff 89       	ldd	r31, Y+23	; 0x17
    10e4:	ef 2b       	or	r30, r31
    10e6:	69 f4       	brne	.+26     	; 0x1102 <__fmt_fp+0x428>
    10e8:	89 2b       	or	r24, r25
    10ea:	59 f4       	brne	.+22     	; 0x1102 <__fmt_fp+0x428>
    10ec:	fb 8d       	ldd	r31, Y+27	; 0x1b
    10ee:	f7 36       	cpi	r31, 0x67	; 103
    10f0:	41 f4       	brne	.+16     	; 0x1102 <__fmt_fp+0x428>
    10f2:	77 fe       	sbrs	r7, 7
    10f4:	06 c0       	rjmp	.+12     	; 0x1102 <__fmt_fp+0x428>
    10f6:	98 01       	movw	r18, r16
    10f8:	2f 5f       	subi	r18, 0xFF	; 255
    10fa:	3f 4f       	sbci	r19, 0xFF	; 255
    10fc:	3d 8f       	std	Y+29, r19	; 0x1d
    10fe:	2c 8f       	std	Y+28, r18	; 0x1c
    1100:	43 c0       	rjmp	.+134    	; 0x1188 <__fmt_fp+0x4ae>
    1102:	4b 85       	ldd	r20, Y+11	; 0x0b
    1104:	5c 85       	ldd	r21, Y+12	; 0x0c
    1106:	45 2b       	or	r20, r21
    1108:	b1 f4       	brne	.+44     	; 0x1136 <__fmt_fp+0x45c>
    110a:	77 fe       	sbrs	r7, 7
    110c:	14 c0       	rjmp	.+40     	; 0x1136 <__fmt_fp+0x45c>
    110e:	5f ef       	ldi	r21, 0xFF	; 255
    1110:	c5 1a       	sub	r12, r21
    1112:	d5 0a       	sbc	r13, r21
    1114:	e9 81       	ldd	r30, Y+1	; 0x01
    1116:	fa 81       	ldd	r31, Y+2	; 0x02
    1118:	8c 8d       	ldd	r24, Y+28	; 0x1c
    111a:	9d 8d       	ldd	r25, Y+29	; 0x1d
    111c:	e8 0f       	add	r30, r24
    111e:	f9 1f       	adc	r31, r25
    1120:	9e e2       	ldi	r25, 0x2E	; 46
    1122:	90 83       	st	Z, r25
    1124:	ef 81       	ldd	r30, Y+7	; 0x07
    1126:	f8 85       	ldd	r31, Y+8	; 0x08
    1128:	31 97       	sbiw	r30, 0x01	; 1
    112a:	f8 87       	std	Y+8, r31	; 0x08
    112c:	ef 83       	std	Y+7, r30	; 0x07
    112e:	21 e0       	ldi	r18, 0x01	; 1
    1130:	30 e0       	ldi	r19, 0x00	; 0
    1132:	3c 87       	std	Y+12, r19	; 0x0c
    1134:	2b 87       	std	Y+11, r18	; 0x0b
    1136:	e9 81       	ldd	r30, Y+1	; 0x01
    1138:	fa 81       	ldd	r31, Y+2	; 0x02
    113a:	ec 0d       	add	r30, r12
    113c:	fd 1d       	adc	r31, r13
    113e:	1d 8f       	std	Y+29, r17	; 0x1d
    1140:	0c 8f       	std	Y+28, r16	; 0x1c
    1142:	8c 8d       	ldd	r24, Y+28	; 0x1c
    1144:	9d 8d       	ldd	r25, Y+29	; 0x1d
    1146:	89 2b       	or	r24, r25
    1148:	49 f0       	breq	.+18     	; 0x115c <__fmt_fp+0x482>
    114a:	30 e3       	ldi	r19, 0x30	; 48
    114c:	31 93       	st	Z+, r19
    114e:	4c 8d       	ldd	r20, Y+28	; 0x1c
    1150:	5d 8d       	ldd	r21, Y+29	; 0x1d
    1152:	41 50       	subi	r20, 0x01	; 1
    1154:	51 09       	sbc	r21, r1
    1156:	5d 8f       	std	Y+29, r21	; 0x1d
    1158:	4c 8f       	std	Y+28, r20	; 0x1c
    115a:	f3 cf       	rjmp	.-26     	; 0x1142 <__fmt_fp+0x468>
    115c:	c8 01       	movw	r24, r16
    115e:	8c 0d       	add	r24, r12
    1160:	9d 1d       	adc	r25, r13
    1162:	2f 81       	ldd	r18, Y+7	; 0x07
    1164:	38 85       	ldd	r19, Y+8	; 0x08
    1166:	20 1b       	sub	r18, r16
    1168:	31 0b       	sbc	r19, r17
    116a:	6c 01       	movw	r12, r24
    116c:	ef ef       	ldi	r30, 0xFF	; 255
    116e:	ce 1a       	sub	r12, r30
    1170:	de 0a       	sbc	r13, r30
    1172:	e9 81       	ldd	r30, Y+1	; 0x01
    1174:	fa 81       	ldd	r31, Y+2	; 0x02
    1176:	e8 0f       	add	r30, r24
    1178:	f9 1f       	adc	r31, r25
    117a:	60 5d       	subi	r22, 0xD0	; 208
    117c:	60 83       	st	Z, r22
    117e:	a9 01       	movw	r20, r18
    1180:	41 50       	subi	r20, 0x01	; 1
    1182:	51 09       	sbc	r21, r1
    1184:	58 87       	std	Y+8, r21	; 0x08
    1186:	4f 83       	std	Y+7, r20	; 0x07
    1188:	85 01       	movw	r16, r10
    118a:	74 01       	movw	r14, r8
    118c:	17 fb       	bst	r17, 7
    118e:	10 95       	com	r17
    1190:	17 f9       	bld	r17, 7
    1192:	10 95       	com	r17
    1194:	2b 81       	ldd	r18, Y+3	; 0x03
    1196:	3c 81       	ldd	r19, Y+4	; 0x04
    1198:	4d 81       	ldd	r20, Y+5	; 0x05
    119a:	5e 81       	ldd	r21, Y+6	; 0x06
    119c:	6d 85       	ldd	r22, Y+13	; 0x0d
    119e:	7e 85       	ldd	r23, Y+14	; 0x0e
    11a0:	8f 85       	ldd	r24, Y+15	; 0x0f
    11a2:	98 89       	ldd	r25, Y+16	; 0x10
    11a4:	0e 94 6e 0e 	call	0x1cdc	; 0x1cdc <fmaf>
    11a8:	4b 01       	movw	r8, r22
    11aa:	5c 01       	movw	r10, r24
    11ac:	b7 fa       	bst	r11, 7
    11ae:	b0 94       	com	r11
    11b0:	b7 f8       	bld	r11, 7
    11b2:	b0 94       	com	r11
    11b4:	20 e0       	ldi	r18, 0x00	; 0
    11b6:	30 e0       	ldi	r19, 0x00	; 0
    11b8:	40 e2       	ldi	r20, 0x20	; 32
    11ba:	51 e4       	ldi	r21, 0x41	; 65
    11bc:	6b 81       	ldd	r22, Y+3	; 0x03
    11be:	7c 81       	ldd	r23, Y+4	; 0x04
    11c0:	8d 81       	ldd	r24, Y+5	; 0x05
    11c2:	9e 81       	ldd	r25, Y+6	; 0x06
    11c4:	0e 94 5b 1a 	call	0x34b6	; 0x34b6 <__divsf3>
    11c8:	6b 83       	std	Y+3, r22	; 0x03
    11ca:	7c 83       	std	Y+4, r23	; 0x04
    11cc:	8d 83       	std	Y+5, r24	; 0x05
    11ce:	9e 83       	std	Y+6, r25	; 0x06
    11d0:	51 e0       	ldi	r21, 0x01	; 1
    11d2:	65 1a       	sub	r6, r21
    11d4:	71 08       	sbc	r7, r1
    11d6:	0c 8d       	ldd	r16, Y+28	; 0x1c
    11d8:	1d 8d       	ldd	r17, Y+29	; 0x1d
    11da:	5e cf       	rjmp	.-324    	; 0x1098 <__fmt_fp+0x3be>
    11dc:	f9 85       	ldd	r31, Y+9	; 0x09
    11de:	f4 ff       	sbrs	r31, 4
    11e0:	0a c0       	rjmp	.+20     	; 0x11f6 <__fmt_fp+0x51c>
    11e2:	e9 81       	ldd	r30, Y+1	; 0x01
    11e4:	fa 81       	ldd	r31, Y+2	; 0x02
    11e6:	ec 0d       	add	r30, r12
    11e8:	fd 1d       	adc	r31, r13
    11ea:	8e e2       	ldi	r24, 0x2E	; 46
    11ec:	80 83       	st	Z, r24
    11ee:	96 01       	movw	r18, r12
    11f0:	2f 5f       	subi	r18, 0xFF	; 255
    11f2:	3f 4f       	sbci	r19, 0xFF	; 255
    11f4:	69 01       	movw	r12, r18
    11f6:	49 81       	ldd	r20, Y+1	; 0x01
    11f8:	5a 81       	ldd	r21, Y+2	; 0x02
    11fa:	4c 0d       	add	r20, r12
    11fc:	5d 1d       	adc	r21, r13
    11fe:	5c 87       	std	Y+12, r21	; 0x0c
    1200:	4b 87       	std	Y+11, r20	; 0x0b
    1202:	fa 01       	movw	r30, r20
    1204:	10 82       	st	Z, r1
    1206:	fd 89       	ldd	r31, Y+21	; 0x15
    1208:	f5 36       	cpi	r31, 0x65	; 101
    120a:	09 f0       	breq	.+2      	; 0x120e <__fmt_fp+0x534>
    120c:	61 c0       	rjmp	.+194    	; 0x12d0 <__fmt_fp+0x5f6>
    120e:	e9 81       	ldd	r30, Y+1	; 0x01
    1210:	fa 81       	ldd	r31, Y+2	; 0x02
    1212:	28 a1       	ldd	r18, Y+32	; 0x20
    1214:	39 a1       	ldd	r19, Y+33	; 0x21
    1216:	e2 0f       	add	r30, r18
    1218:	f3 1f       	adc	r31, r19
    121a:	31 97       	sbiw	r30, 0x01	; 1
    121c:	10 82       	st	Z, r1
    121e:	37 fe       	sbrs	r3, 7
    1220:	06 c0       	rjmp	.+12     	; 0x122e <__fmt_fp+0x554>
    1222:	31 94       	neg	r3
    1224:	21 94       	neg	r2
    1226:	31 08       	sbc	r3, r1
    1228:	01 e0       	ldi	r16, 0x01	; 1
    122a:	10 e0       	ldi	r17, 0x00	; 0
    122c:	02 c0       	rjmp	.+4      	; 0x1232 <__fmt_fp+0x558>
    122e:	00 e0       	ldi	r16, 0x00	; 0
    1230:	10 e0       	ldi	r17, 0x00	; 0
    1232:	e8 a1       	ldd	r30, Y+32	; 0x20
    1234:	f9 a1       	ldd	r31, Y+33	; 0x21
    1236:	31 97       	sbiw	r30, 0x01	; 1
    1238:	49 81       	ldd	r20, Y+1	; 0x01
    123a:	5a 81       	ldd	r21, Y+2	; 0x02
    123c:	e4 0f       	add	r30, r20
    123e:	f5 1f       	adc	r31, r21
    1240:	22 e0       	ldi	r18, 0x02	; 2
    1242:	30 e0       	ldi	r19, 0x00	; 0
    1244:	8a e0       	ldi	r24, 0x0A	; 10
    1246:	e8 2e       	mov	r14, r24
    1248:	f1 2c       	mov	r15, r1
    124a:	cf 01       	movw	r24, r30
    124c:	49 81       	ldd	r20, Y+1	; 0x01
    124e:	5a 81       	ldd	r21, Y+2	; 0x02
    1250:	84 1b       	sub	r24, r20
    1252:	95 0b       	sbc	r25, r21
    1254:	21 14       	cp	r2, r1
    1256:	31 04       	cpc	r3, r1
    1258:	79 f0       	breq	.+30     	; 0x1278 <__fmt_fp+0x59e>
    125a:	c1 01       	movw	r24, r2
    125c:	b7 01       	movw	r22, r14
    125e:	0e 94 4c 19 	call	0x3298	; 0x3298 <__divmodhi4>
    1262:	80 5d       	subi	r24, 0xD0	; 208
    1264:	82 93       	st	-Z, r24
    1266:	1b 01       	movw	r2, r22
    1268:	21 50       	subi	r18, 0x01	; 1
    126a:	31 09       	sbc	r19, r1
    126c:	8f 81       	ldd	r24, Y+7	; 0x07
    126e:	98 85       	ldd	r25, Y+8	; 0x08
    1270:	01 97       	sbiw	r24, 0x01	; 1
    1272:	98 87       	std	Y+8, r25	; 0x08
    1274:	8f 83       	std	Y+7, r24	; 0x07
    1276:	e9 cf       	rjmp	.-46     	; 0x124a <__fmt_fp+0x570>
    1278:	12 16       	cp	r1, r18
    127a:	13 06       	cpc	r1, r19
    127c:	74 f3       	brlt	.-36     	; 0x125a <__fmt_fp+0x580>
    127e:	fc 01       	movw	r30, r24
    1280:	31 97       	sbiw	r30, 0x01	; 1
    1282:	e4 0f       	add	r30, r20
    1284:	f5 1f       	adc	r31, r21
    1286:	01 2b       	or	r16, r17
    1288:	11 f4       	brne	.+4      	; 0x128e <__fmt_fp+0x5b4>
    128a:	2b e2       	ldi	r18, 0x2B	; 43
    128c:	01 c0       	rjmp	.+2      	; 0x1290 <__fmt_fp+0x5b6>
    128e:	2d e2       	ldi	r18, 0x2D	; 45
    1290:	20 83       	st	Z, r18
    1292:	02 97       	sbiw	r24, 0x02	; 2
    1294:	e9 81       	ldd	r30, Y+1	; 0x01
    1296:	fa 81       	ldd	r31, Y+2	; 0x02
    1298:	e8 0f       	add	r30, r24
    129a:	f9 1f       	adc	r31, r25
    129c:	2a a1       	ldd	r18, Y+34	; 0x22
    129e:	3b a1       	ldd	r19, Y+35	; 0x23
    12a0:	21 54       	subi	r18, 0x41	; 65
    12a2:	31 09       	sbc	r19, r1
    12a4:	2a 31       	cpi	r18, 0x1A	; 26
    12a6:	31 05       	cpc	r19, r1
    12a8:	10 f0       	brcs	.+4      	; 0x12ae <__fmt_fp+0x5d4>
    12aa:	25 e6       	ldi	r18, 0x65	; 101
    12ac:	01 c0       	rjmp	.+2      	; 0x12b0 <__fmt_fp+0x5d6>
    12ae:	25 e4       	ldi	r18, 0x45	; 69
    12b0:	20 83       	st	Z, r18
    12b2:	2f 81       	ldd	r18, Y+7	; 0x07
    12b4:	38 85       	ldd	r19, Y+8	; 0x08
    12b6:	22 50       	subi	r18, 0x02	; 2
    12b8:	31 09       	sbc	r19, r1
    12ba:	38 87       	std	Y+8, r19	; 0x08
    12bc:	2f 83       	std	Y+7, r18	; 0x07
    12be:	c8 16       	cp	r12, r24
    12c0:	d9 06       	cpc	r13, r25
    12c2:	34 f4       	brge	.+12     	; 0x12d0 <__fmt_fp+0x5f6>
    12c4:	af 01       	movw	r20, r30
    12c6:	60 e8       	ldi	r22, 0x80	; 128
    12c8:	8b 85       	ldd	r24, Y+11	; 0x0b
    12ca:	9c 85       	ldd	r25, Y+12	; 0x0c
    12cc:	0e 94 98 19 	call	0x3330	; 0x3330 <strcpy>
    12d0:	49 81       	ldd	r20, Y+1	; 0x01
    12d2:	5a 81       	ldd	r21, Y+2	; 0x02
    12d4:	3a 01       	movw	r6, r20
    12d6:	80 e8       	ldi	r24, 0x80	; 128
    12d8:	88 2e       	mov	r8, r24
    12da:	99 85       	ldd	r25, Y+9	; 0x09
    12dc:	91 ff       	sbrs	r25, 1
    12de:	2e c0       	rjmp	.+92     	; 0x133c <__fmt_fp+0x662>
    12e0:	90 fd       	sbrc	r25, 0
    12e2:	2c c0       	rjmp	.+88     	; 0x133c <__fmt_fp+0x662>
    12e4:	ef 81       	ldd	r30, Y+7	; 0x07
    12e6:	f8 85       	ldd	r31, Y+8	; 0x08
    12e8:	1e 16       	cp	r1, r30
    12ea:	1f 06       	cpc	r1, r31
    12ec:	3c f5       	brge	.+78     	; 0x133c <__fmt_fp+0x662>
    12ee:	88 2d       	mov	r24, r8
    12f0:	b3 01       	movw	r22, r6
    12f2:	0e 94 36 19 	call	0x326c	; 0x326c <strlen>
    12f6:	29 81       	ldd	r18, Y+1	; 0x01
    12f8:	3a 81       	ldd	r19, Y+2	; 0x02
    12fa:	82 0f       	add	r24, r18
    12fc:	93 1f       	adc	r25, r19
    12fe:	9c 01       	movw	r18, r24
    1300:	49 81       	ldd	r20, Y+1	; 0x01
    1302:	5a 81       	ldd	r21, Y+2	; 0x02
    1304:	24 1b       	sub	r18, r20
    1306:	35 0b       	sbc	r19, r21
    1308:	e9 89       	ldd	r30, Y+17	; 0x11
    130a:	fa 89       	ldd	r31, Y+18	; 0x12
    130c:	2e 17       	cp	r18, r30
    130e:	3f 07       	cpc	r19, r31
    1310:	4c f0       	brlt	.+18     	; 0x1324 <__fmt_fp+0x64a>
    1312:	fc 01       	movw	r30, r24
    1314:	20 81       	ld	r18, Z
    1316:	ef 81       	ldd	r30, Y+7	; 0x07
    1318:	f8 85       	ldd	r31, Y+8	; 0x08
    131a:	e8 0f       	add	r30, r24
    131c:	f9 1f       	adc	r31, r25
    131e:	20 83       	st	Z, r18
    1320:	01 97       	sbiw	r24, 0x01	; 1
    1322:	ed cf       	rjmp	.-38     	; 0x12fe <__fmt_fp+0x624>
    1324:	4f 81       	ldd	r20, Y+7	; 0x07
    1326:	58 85       	ldd	r21, Y+8	; 0x08
    1328:	60 e3       	ldi	r22, 0x30	; 48
    132a:	70 e0       	ldi	r23, 0x00	; 0
    132c:	89 81       	ldd	r24, Y+1	; 0x01
    132e:	9a 81       	ldd	r25, Y+2	; 0x02
    1330:	8e 0f       	add	r24, r30
    1332:	9f 1f       	adc	r25, r31
    1334:	0e 94 f6 19 	call	0x33ec	; 0x33ec <memset>
    1338:	1c 8a       	std	Y+20, r1	; 0x14
    133a:	1b 8a       	std	Y+19, r1	; 0x13
    133c:	88 2d       	mov	r24, r8
    133e:	b3 01       	movw	r22, r6
    1340:	0e 94 36 19 	call	0x326c	; 0x326c <strlen>
    1344:	e9 84       	ldd	r14, Y+9	; 0x09
    1346:	fa 84       	ldd	r15, Y+10	; 0x0a
    1348:	0b 89       	ldd	r16, Y+19	; 0x13
    134a:	1c 89       	ldd	r17, Y+20	; 0x14
    134c:	9c 01       	movw	r18, r24
    134e:	68 2d       	mov	r22, r8
    1350:	a3 01       	movw	r20, r6
    1352:	8e 8d       	ldd	r24, Y+30	; 0x1e
    1354:	9f 8d       	ldd	r25, Y+31	; 0x1f
    1356:	0e 94 32 10 	call	0x2064	; 0x2064 <__pad>
    135a:	a6 96       	adiw	r28, 0x26	; 38
    135c:	e2 e1       	ldi	r30, 0x12	; 18
    135e:	0c 94 c0 18 	jmp	0x3180	; 0x3180 <__epilogue_restores__>
    1362:	59 85       	ldd	r21, Y+9	; 0x09
    1364:	53 ff       	sbrs	r21, 3
    1366:	00 cd       	rjmp	.-1536   	; 0xd68 <__fmt_fp+0x8e>
    1368:	80 e2       	ldi	r24, 0x20	; 32
    136a:	f0 cc       	rjmp	.-1568   	; 0xd4c <__fmt_fp+0x72>
    136c:	2c ef       	ldi	r18, 0xFC	; 252
    136e:	22 16       	cp	r2, r18
    1370:	2f ef       	ldi	r18, 0xFF	; 255
    1372:	32 06       	cpc	r3, r18
    1374:	4c f0       	brlt	.+18     	; 0x1388 <__fmt_fp+0x6ae>
    1376:	4d a1       	ldd	r20, Y+37	; 0x25
    1378:	5e a1       	ldd	r21, Y+38	; 0x26
    137a:	24 16       	cp	r2, r20
    137c:	35 06       	cpc	r3, r21
    137e:	0c f4       	brge	.+2      	; 0x1382 <__fmt_fp+0x6a8>
    1380:	df cd       	rjmp	.-1090   	; 0xf40 <__fmt_fp+0x266>
    1382:	55 e6       	ldi	r21, 0x65	; 101
    1384:	5d 8b       	std	Y+21, r21	; 0x15
    1386:	fb cd       	rjmp	.-1034   	; 0xf7e <__fmt_fp+0x2a4>
    1388:	35 e6       	ldi	r19, 0x65	; 101
    138a:	3d 8b       	std	Y+21, r19	; 0x15
    138c:	f8 cd       	rjmp	.-1040   	; 0xf7e <__fmt_fp+0x2a4>
    138e:	46 e6       	ldi	r20, 0x66	; 102
    1390:	4d 8b       	std	Y+21, r20	; 0x15
    1392:	f5 cd       	rjmp	.-1046   	; 0xf7e <__fmt_fp+0x2a4>

Disassembly of section .text.__out:

00002d3e <__out>:
    2d3e:	6f 92       	push	r6
    2d40:	7f 92       	push	r7
    2d42:	8f 92       	push	r8
    2d44:	cf 92       	push	r12
    2d46:	df 92       	push	r13
    2d48:	ef 92       	push	r14
    2d4a:	0f 93       	push	r16
    2d4c:	1f 93       	push	r17
    2d4e:	cf 93       	push	r28
    2d50:	df 93       	push	r29
    2d52:	8c 01       	movw	r16, r24
    2d54:	6a 01       	movw	r12, r20
    2d56:	e6 2e       	mov	r14, r22
    2d58:	e9 01       	movw	r28, r18
    2d5a:	3a 01       	movw	r6, r20
    2d5c:	86 2e       	mov	r8, r22
    2d5e:	62 0e       	add	r6, r18
    2d60:	73 1e       	adc	r7, r19
    2d62:	81 1c       	adc	r8, r1
    2d64:	37 fd       	sbrc	r19, 7
    2d66:	8a 94       	dec	r8
    2d68:	c6 14       	cp	r12, r6
    2d6a:	d7 04       	cpc	r13, r7
    2d6c:	e8 04       	cpc	r14, r8
    2d6e:	79 f0       	breq	.+30     	; 0x2d8e <__out+0x50>
    2d70:	f6 01       	movw	r30, r12
    2d72:	84 91       	lpm	r24, Z
    2d74:	e7 fc       	sbrc	r14, 7
    2d76:	80 81       	ld	r24, Z
    2d78:	b8 01       	movw	r22, r16
    2d7a:	08 2e       	mov	r0, r24
    2d7c:	00 0c       	add	r0, r0
    2d7e:	99 0b       	sbc	r25, r25
    2d80:	0e 94 f4 14 	call	0x29e8	; 0x29e8 <fputc>
    2d84:	8f ef       	ldi	r24, 0xFF	; 255
    2d86:	c8 1a       	sub	r12, r24
    2d88:	d8 0a       	sbc	r13, r24
    2d8a:	e8 0a       	sbc	r14, r24
    2d8c:	ed cf       	rjmp	.-38     	; 0x2d68 <__out+0x2a>
    2d8e:	ce 01       	movw	r24, r28
    2d90:	df 91       	pop	r29
    2d92:	cf 91       	pop	r28
    2d94:	1f 91       	pop	r17
    2d96:	0f 91       	pop	r16
    2d98:	ef 90       	pop	r14
    2d9a:	df 90       	pop	r13
    2d9c:	cf 90       	pop	r12
    2d9e:	8f 90       	pop	r8
    2da0:	7f 90       	pop	r7
    2da2:	6f 90       	pop	r6
    2da4:	08 95       	ret

Disassembly of section .text.__pad:

00002064 <__pad>:
    2064:	2f 92       	push	r2
    2066:	3f 92       	push	r3
    2068:	4f 92       	push	r4
    206a:	6f 92       	push	r6
    206c:	7f 92       	push	r7
    206e:	8f 92       	push	r8
    2070:	af 92       	push	r10
    2072:	bf 92       	push	r11
    2074:	cf 92       	push	r12
    2076:	df 92       	push	r13
    2078:	ef 92       	push	r14
    207a:	ff 92       	push	r15
    207c:	0f 93       	push	r16
    207e:	1f 93       	push	r17
    2080:	cf 93       	push	r28
    2082:	df 93       	push	r29
    2084:	cd b7       	in	r28, 0x3d	; 61
    2086:	de b7       	in	r29, 0x3e	; 62
    2088:	66 97       	sbiw	r28, 0x16	; 22
    208a:	0f b6       	in	r0, 0x3f	; 63
    208c:	f8 94       	cli
    208e:	de bf       	out	0x3e, r29	; 62
    2090:	0f be       	out	0x3f, r0	; 63
    2092:	cd bf       	out	0x3d, r28	; 61
    2094:	5c 01       	movw	r10, r24
    2096:	3a 01       	movw	r6, r20
    2098:	86 2e       	mov	r8, r22
    209a:	69 01       	movw	r12, r18
    209c:	c7 01       	movw	r24, r14
    209e:	81 70       	andi	r24, 0x01	; 1
    20a0:	99 27       	eor	r25, r25
    20a2:	9c 8b       	std	Y+20, r25	; 0x14
    20a4:	8b 8b       	std	Y+19, r24	; 0x13
    20a6:	e0 fc       	sbrc	r14, 0
    20a8:	1d c0       	rjmp	.+58     	; 0x20e4 <__pad+0x80>
    20aa:	20 17       	cp	r18, r16
    20ac:	31 07       	cpc	r19, r17
    20ae:	d4 f4       	brge	.+52     	; 0x20e4 <__pad+0x80>
    20b0:	78 01       	movw	r14, r16
    20b2:	ec 18       	sub	r14, r12
    20b4:	fd 08       	sbc	r15, r13
    20b6:	fe 8a       	std	Y+22, r15	; 0x16
    20b8:	ed 8a       	std	Y+21, r14	; 0x15
    20ba:	a7 01       	movw	r20, r14
    20bc:	91 e1       	ldi	r25, 0x11	; 17
    20be:	e9 16       	cp	r14, r25
    20c0:	f1 04       	cpc	r15, r1
    20c2:	10 f0       	brcs	.+4      	; 0x20c8 <__pad+0x64>
    20c4:	40 e1       	ldi	r20, 0x10	; 16
    20c6:	50 e0       	ldi	r21, 0x00	; 0
    20c8:	60 e2       	ldi	r22, 0x20	; 32
    20ca:	70 e0       	ldi	r23, 0x00	; 0
    20cc:	ce 01       	movw	r24, r28
    20ce:	01 96       	adiw	r24, 0x01	; 1
    20d0:	9a 8b       	std	Y+18, r25	; 0x12
    20d2:	89 8b       	std	Y+17, r24	; 0x11
    20d4:	0e 94 f6 19 	call	0x33ec	; 0x33ec <memset>
    20d8:	89 89       	ldd	r24, Y+17	; 0x11
    20da:	9a 89       	ldd	r25, Y+18	; 0x12
    20dc:	1c 01       	movw	r2, r24
    20de:	20 e8       	ldi	r18, 0x80	; 128
    20e0:	42 2e       	mov	r4, r18
    20e2:	0b c0       	rjmp	.+22     	; 0x20fa <__pad+0x96>
    20e4:	96 01       	movw	r18, r12
    20e6:	68 2d       	mov	r22, r8
    20e8:	a3 01       	movw	r20, r6
    20ea:	c5 01       	movw	r24, r10
    20ec:	0e 94 9f 16 	call	0x2d3e	; 0x2d3e <__out>
    20f0:	c0 16       	cp	r12, r16
    20f2:	d1 06       	cpc	r13, r17
    20f4:	ec f2       	brlt	.-70     	; 0x20b0 <__pad+0x4c>
    20f6:	c6 01       	movw	r24, r12
    20f8:	25 c0       	rjmp	.+74     	; 0x2144 <__pad+0xe0>
    20fa:	90 e1       	ldi	r25, 0x10	; 16
    20fc:	e9 16       	cp	r14, r25
    20fe:	f1 04       	cpc	r15, r1
    2100:	58 f0       	brcs	.+22     	; 0x2118 <__pad+0xb4>
    2102:	20 e1       	ldi	r18, 0x10	; 16
    2104:	30 e0       	ldi	r19, 0x00	; 0
    2106:	64 2d       	mov	r22, r4
    2108:	a1 01       	movw	r20, r2
    210a:	c5 01       	movw	r24, r10
    210c:	0e 94 9f 16 	call	0x2d3e	; 0x2d3e <__out>
    2110:	80 e1       	ldi	r24, 0x10	; 16
    2112:	e8 1a       	sub	r14, r24
    2114:	f1 08       	sbc	r15, r1
    2116:	f1 cf       	rjmp	.-30     	; 0x20fa <__pad+0x96>
    2118:	2d 89       	ldd	r18, Y+21	; 0x15
    211a:	3e 89       	ldd	r19, Y+22	; 0x16
    211c:	2f 70       	andi	r18, 0x0F	; 15
    211e:	33 27       	eor	r19, r19
    2120:	89 89       	ldd	r24, Y+17	; 0x11
    2122:	9a 89       	ldd	r25, Y+18	; 0x12
    2124:	ac 01       	movw	r20, r24
    2126:	60 e8       	ldi	r22, 0x80	; 128
    2128:	c5 01       	movw	r24, r10
    212a:	0e 94 9f 16 	call	0x2d3e	; 0x2d3e <__out>
    212e:	8b 89       	ldd	r24, Y+19	; 0x13
    2130:	9c 89       	ldd	r25, Y+20	; 0x14
    2132:	89 2b       	or	r24, r25
    2134:	31 f4       	brne	.+12     	; 0x2142 <__pad+0xde>
    2136:	96 01       	movw	r18, r12
    2138:	68 2d       	mov	r22, r8
    213a:	a3 01       	movw	r20, r6
    213c:	c5 01       	movw	r24, r10
    213e:	0e 94 9f 16 	call	0x2d3e	; 0x2d3e <__out>
    2142:	c8 01       	movw	r24, r16
    2144:	66 96       	adiw	r28, 0x16	; 22
    2146:	0f b6       	in	r0, 0x3f	; 63
    2148:	f8 94       	cli
    214a:	de bf       	out	0x3e, r29	; 62
    214c:	0f be       	out	0x3f, r0	; 63
    214e:	cd bf       	out	0x3d, r28	; 61
    2150:	df 91       	pop	r29
    2152:	cf 91       	pop	r28
    2154:	1f 91       	pop	r17
    2156:	0f 91       	pop	r16
    2158:	ff 90       	pop	r15
    215a:	ef 90       	pop	r14
    215c:	df 90       	pop	r13
    215e:	cf 90       	pop	r12
    2160:	bf 90       	pop	r11
    2162:	af 90       	pop	r10
    2164:	8f 90       	pop	r8
    2166:	7f 90       	pop	r7
    2168:	6f 90       	pop	r6
    216a:	4f 90       	pop	r4
    216c:	3f 90       	pop	r3
    216e:	2f 90       	pop	r2
    2170:	08 95       	ret

Disassembly of section .text.__dummy_fmt3:

000034cc <__fmt_d>:
    34cc:	80 e0       	ldi	r24, 0x00	; 0
    34ce:	90 e0       	ldi	r25, 0x00	; 0
    34d0:	08 95       	ret

Disassembly of section .text.__dummy_fmt4:

000034d2 <__fmt_a>:
    34d2:	80 e0       	ldi	r24, 0x00	; 0
    34d4:	90 e0       	ldi	r25, 0x00	; 0
    34d6:	08 95       	ret

Disassembly of section .text.__dummy_fmts:

000034d8 <__fmt_s>:
    34d8:	80 e0       	ldi	r24, 0x00	; 0
    34da:	90 e0       	ldi	r25, 0x00	; 0
    34dc:	08 95       	ret

Disassembly of section .text.__fmt_state:

000028b2 <__fmt_state>:
    28b2:	cf 92       	push	r12
    28b4:	df 92       	push	r13
    28b6:	ef 92       	push	r14
    28b8:	dc 01       	movw	r26, r24
    28ba:	90 e0       	ldi	r25, 0x00	; 0
    28bc:	29 2f       	mov	r18, r25
    28be:	30 e0       	ldi	r19, 0x00	; 0
    28c0:	22 0f       	add	r18, r18
    28c2:	33 1f       	adc	r19, r19
    28c4:	69 01       	movw	r12, r18
    28c6:	03 2e       	mov	r0, r19
    28c8:	00 0c       	add	r0, r0
    28ca:	ee 08       	sbc	r14, r14
    28cc:	6e 2d       	mov	r22, r14
    28ce:	a6 01       	movw	r20, r12
    28d0:	44 57       	subi	r20, 0x74	; 116
    28d2:	5b 4f       	sbci	r21, 0xFB	; 251
    28d4:	6f 4f       	sbci	r22, 0xFF	; 255
    28d6:	6a 01       	movw	r12, r20
    28d8:	e6 2e       	mov	r14, r22
    28da:	fa 01       	movw	r30, r20
    28dc:	84 91       	lpm	r24, Z
    28de:	e7 fc       	sbrc	r14, 7
    28e0:	80 81       	ld	r24, Z
    28e2:	81 11       	cpse	r24, r1
    28e4:	0d c0       	rjmp	.+26     	; 0x2900 <__fmt_state+0x4e>
    28e6:	2f 5f       	subi	r18, 0xFF	; 255
    28e8:	3f 4f       	sbci	r19, 0xFF	; 255
    28ea:	03 2e       	mov	r0, r19
    28ec:	00 0c       	add	r0, r0
    28ee:	44 0b       	sbc	r20, r20
    28f0:	24 57       	subi	r18, 0x74	; 116
    28f2:	3b 4f       	sbci	r19, 0xFB	; 251
    28f4:	4f 4f       	sbci	r20, 0xFF	; 255
    28f6:	f9 01       	movw	r30, r18
    28f8:	84 91       	lpm	r24, Z
    28fa:	47 fd       	sbrc	r20, 7
    28fc:	80 81       	ld	r24, Z
    28fe:	24 c0       	rjmp	.+72     	; 0x2948 <__fmt_state+0x96>
    2900:	cd 90       	ld	r12, X+
    2902:	dd 90       	ld	r13, X+
    2904:	ec 90       	ld	r14, X
    2906:	12 97       	sbiw	r26, 0x02	; 2
    2908:	f6 01       	movw	r30, r12
    290a:	44 91       	lpm	r20, Z
    290c:	e7 fc       	sbrc	r14, 7
    290e:	40 81       	ld	r20, Z
    2910:	84 13       	cpse	r24, r20
    2912:	15 c0       	rjmp	.+42     	; 0x293e <__fmt_state+0x8c>
    2914:	2f 5f       	subi	r18, 0xFF	; 255
    2916:	3f 4f       	sbci	r19, 0xFF	; 255
    2918:	03 2e       	mov	r0, r19
    291a:	00 0c       	add	r0, r0
    291c:	44 0b       	sbc	r20, r20
    291e:	24 57       	subi	r18, 0x74	; 116
    2920:	3b 4f       	sbci	r19, 0xFB	; 251
    2922:	4f 4f       	sbci	r20, 0xFF	; 255
    2924:	f9 01       	movw	r30, r18
    2926:	94 91       	lpm	r25, Z
    2928:	47 fd       	sbrc	r20, 7
    292a:	90 81       	ld	r25, Z
    292c:	5f ef       	ldi	r21, 0xFF	; 255
    292e:	c5 1a       	sub	r12, r21
    2930:	d5 0a       	sbc	r13, r21
    2932:	e5 0a       	sbc	r14, r21
    2934:	cd 92       	st	X+, r12
    2936:	dd 92       	st	X+, r13
    2938:	ec 92       	st	X, r14
    293a:	12 97       	sbiw	r26, 0x02	; 2
    293c:	01 c0       	rjmp	.+2      	; 0x2940 <__fmt_state+0x8e>
    293e:	9f 5f       	subi	r25, 0xFF	; 255
    2940:	9b 30       	cpi	r25, 0x0B	; 11
    2942:	08 f4       	brcc	.+2      	; 0x2946 <__fmt_state+0x94>
    2944:	bb cf       	rjmp	.-138    	; 0x28bc <__fmt_state+0xa>
    2946:	89 2f       	mov	r24, r25
    2948:	ef 90       	pop	r14
    294a:	df 90       	pop	r13
    294c:	cf 90       	pop	r12
    294e:	08 95       	ret

Disassembly of section .text.__printf_core:

000004b8 <__printf_core>:
 4b8:	a3 ea       	ldi	r26, 0xA3	; 163
 4ba:	b0 e0       	ldi	r27, 0x00	; 0
 4bc:	e2 e6       	ldi	r30, 0x62	; 98
 4be:	f2 e0       	ldi	r31, 0x02	; 2
 4c0:	0c 94 a4 18 	jmp	0x3148	; 0x3148 <__prologue_saves__>
 4c4:	4c 01       	movw	r8, r24
 4c6:	59 01       	movw	r10, r18
 4c8:	c7 56       	subi	r28, 0x67	; 103
 4ca:	df 4f       	sbci	r29, 0xFF	; 255
 4cc:	48 83       	st	Y, r20
 4ce:	59 83       	std	Y+1, r21	; 0x01
 4d0:	6a 83       	std	Y+2, r22	; 0x02
 4d2:	c9 59       	subi	r28, 0x99	; 153
 4d4:	d0 40       	sbci	r29, 0x00	; 0
 4d6:	21 2c       	mov	r2, r1
 4d8:	31 2c       	mov	r3, r1
 4da:	6e 01       	movw	r12, r28
 4dc:	2b e8       	ldi	r18, 0x8B	; 139
 4de:	c2 0e       	add	r12, r18
 4e0:	d1 1c       	adc	r13, r1
 4e2:	85 e2       	ldi	r24, 0x25	; 37
 4e4:	78 2e       	mov	r7, r24
 4e6:	26 01       	movw	r4, r12
 4e8:	30 e8       	ldi	r19, 0x80	; 128
 4ea:	63 2e       	mov	r6, r19
 4ec:	ce 01       	movw	r24, r28
 4ee:	8d 56       	subi	r24, 0x6D	; 109
 4f0:	9f 4f       	sbci	r25, 0xFF	; 255
 4f2:	c4 56       	subi	r28, 0x64	; 100
 4f4:	df 4f       	sbci	r29, 0xFF	; 255
 4f6:	99 83       	std	Y+1, r25	; 0x01
 4f8:	88 83       	st	Y, r24
 4fa:	cc 59       	subi	r28, 0x9C	; 156
 4fc:	d0 40       	sbci	r29, 0x00	; 0
 4fe:	9c 01       	movw	r18, r24
 500:	40 e8       	ldi	r20, 0x80	; 128
 502:	cf 55       	subi	r28, 0x5F	; 95
 504:	df 4f       	sbci	r29, 0xFF	; 255
 506:	28 83       	st	Y, r18
 508:	39 83       	std	Y+1, r19	; 0x01
 50a:	4a 83       	std	Y+2, r20	; 0x02
 50c:	c1 5a       	subi	r28, 0xA1	; 161
 50e:	d0 40       	sbci	r29, 0x00	; 0
 510:	c7 56       	subi	r28, 0x67	; 103
 512:	df 4f       	sbci	r29, 0xFF	; 255
 514:	48 81       	ld	r20, Y
 516:	c9 59       	subi	r28, 0x99	; 153
 518:	d0 40       	sbci	r29, 0x00	; 0
 51a:	c6 56       	subi	r28, 0x66	; 102
 51c:	df 4f       	sbci	r29, 0xFF	; 255
 51e:	58 81       	ld	r21, Y
 520:	ca 59       	subi	r28, 0x9A	; 154
 522:	d0 40       	sbci	r29, 0x00	; 0
 524:	c5 56       	subi	r28, 0x65	; 101
 526:	df 4f       	sbci	r29, 0xFF	; 255
 528:	68 81       	ld	r22, Y
 52a:	cb 59       	subi	r28, 0x9B	; 155
 52c:	d0 40       	sbci	r29, 0x00	; 0
 52e:	fa 01       	movw	r30, r20
 530:	84 91       	lpm	r24, Z
 532:	67 fd       	sbrc	r22, 7
 534:	80 81       	ld	r24, Z
 536:	88 23       	and	r24, r24
 538:	09 f4       	brne	.+2      	; 0x53c <__printf_core+0x84>
 53a:	c9 c3       	rjmp	.+1938   	; 0xcce <__stack+0x3cf>
 53c:	cf 57       	subi	r28, 0x7F	; 127
 53e:	df 4f       	sbci	r29, 0xFF	; 255
 540:	19 82       	std	Y+1, r1	; 0x01
 542:	18 82       	st	Y, r1
 544:	c1 58       	subi	r28, 0x81	; 129
 546:	d0 40       	sbci	r29, 0x00	; 0
 548:	8f ef       	ldi	r24, 0xFF	; 255
 54a:	9f ef       	ldi	r25, 0xFF	; 255
 54c:	cd 57       	subi	r28, 0x7D	; 125
 54e:	df 4f       	sbci	r29, 0xFF	; 255
 550:	99 83       	std	Y+1, r25	; 0x01
 552:	88 83       	st	Y, r24
 554:	c3 58       	subi	r28, 0x83	; 131
 556:	d0 40       	sbci	r29, 0x00	; 0
 558:	cb 57       	subi	r28, 0x7B	; 123
 55a:	df 4f       	sbci	r29, 0xFF	; 255
 55c:	19 82       	std	Y+1, r1	; 0x01
 55e:	18 82       	st	Y, r1
 560:	c5 58       	subi	r28, 0x85	; 133
 562:	d0 40       	sbci	r29, 0x00	; 0
 564:	a1 e0       	ldi	r26, 0x01	; 1
 566:	b0 e0       	ldi	r27, 0x00	; 0
 568:	ac 0f       	add	r26, r28
 56a:	bd 1f       	adc	r27, r29
 56c:	c9 57       	subi	r28, 0x79	; 121
 56e:	df 4f       	sbci	r29, 0xFF	; 255
 570:	b9 83       	std	Y+1, r27	; 0x01
 572:	a8 83       	st	Y, r26
 574:	c7 58       	subi	r28, 0x87	; 135
 576:	d0 40       	sbci	r29, 0x00	; 0
 578:	e0 e8       	ldi	r30, 0x80	; 128
 57a:	f0 e0       	ldi	r31, 0x00	; 0
 57c:	c7 57       	subi	r28, 0x77	; 119
 57e:	df 4f       	sbci	r29, 0xFF	; 255
 580:	f9 83       	std	Y+1, r31	; 0x01
 582:	e8 83       	st	Y, r30
 584:	c9 58       	subi	r28, 0x89	; 137
 586:	d0 40       	sbci	r29, 0x00	; 0
 588:	ca 01       	movw	r24, r20
 58a:	a6 2f       	mov	r26, r22
 58c:	e1 2c       	mov	r14, r1
 58e:	f1 2c       	mov	r15, r1
 590:	fc 01       	movw	r30, r24
 592:	24 91       	lpm	r18, Z
 594:	a7 fd       	sbrc	r26, 7
 596:	20 81       	ld	r18, Z
 598:	21 11       	cpse	r18, r1
 59a:	1b c0       	rjmp	.+54     	; 0x5d2 <__printf_core+0x11a>
 59c:	e1 14       	cp	r14, r1
 59e:	f1 04       	cpc	r15, r1
 5a0:	01 f1       	breq	.+64     	; 0x5e2 <__printf_core+0x12a>
 5a2:	97 01       	movw	r18, r14
 5a4:	c4 01       	movw	r24, r8
 5a6:	0e 94 9f 16 	call	0x2d3e	; 0x2d3e <__out>
 5aa:	c7 56       	subi	r28, 0x67	; 103
 5ac:	df 4f       	sbci	r29, 0xFF	; 255
 5ae:	88 81       	ld	r24, Y
 5b0:	99 81       	ldd	r25, Y+1	; 0x01
 5b2:	aa 81       	ldd	r26, Y+2	; 0x02
 5b4:	c9 59       	subi	r28, 0x99	; 153
 5b6:	d0 40       	sbci	r29, 0x00	; 0
 5b8:	8e 0d       	add	r24, r14
 5ba:	9f 1d       	adc	r25, r15
 5bc:	a1 1d       	adc	r26, r1
 5be:	f7 fc       	sbrc	r15, 7
 5c0:	aa 95       	dec	r26
 5c2:	c7 56       	subi	r28, 0x67	; 103
 5c4:	df 4f       	sbci	r29, 0xFF	; 255
 5c6:	88 83       	st	Y, r24
 5c8:	99 83       	std	Y+1, r25	; 0x01
 5ca:	aa 83       	std	Y+2, r26	; 0x02
 5cc:	c9 59       	subi	r28, 0x99	; 153
 5ce:	d0 40       	sbci	r29, 0x00	; 0
 5d0:	08 c0       	rjmp	.+16     	; 0x5e2 <__printf_core+0x12a>
 5d2:	01 96       	adiw	r24, 0x01	; 1
 5d4:	a1 1d       	adc	r26, r1
 5d6:	25 32       	cpi	r18, 0x25	; 37
 5d8:	09 f3       	breq	.-62     	; 0x59c <__printf_core+0xe4>
 5da:	ff ef       	ldi	r31, 0xFF	; 255
 5dc:	ef 1a       	sub	r14, r31
 5de:	ff 0a       	sbc	r15, r31
 5e0:	d7 cf       	rjmp	.-82     	; 0x590 <__printf_core+0xd8>
 5e2:	c7 56       	subi	r28, 0x67	; 103
 5e4:	df 4f       	sbci	r29, 0xFF	; 255
 5e6:	88 81       	ld	r24, Y
 5e8:	99 81       	ldd	r25, Y+1	; 0x01
 5ea:	aa 81       	ldd	r26, Y+2	; 0x02
 5ec:	c9 59       	subi	r28, 0x99	; 153
 5ee:	d0 40       	sbci	r29, 0x00	; 0
 5f0:	fc 01       	movw	r30, r24
 5f2:	24 91       	lpm	r18, Z
 5f4:	a7 fd       	sbrc	r26, 7
 5f6:	20 81       	ld	r18, Z
 5f8:	25 32       	cpi	r18, 0x25	; 37
 5fa:	09 f0       	breq	.+2      	; 0x5fe <__printf_core+0x146>
 5fc:	56 c3       	rjmp	.+1708   	; 0xcaa <__stack+0x3ab>
 5fe:	9c 01       	movw	r18, r24
 600:	4a 2f       	mov	r20, r26
 602:	2f 5f       	subi	r18, 0xFF	; 255
 604:	3f 4f       	sbci	r19, 0xFF	; 255
 606:	4f 4f       	sbci	r20, 0xFF	; 255
 608:	c2 56       	subi	r28, 0x62	; 98
 60a:	df 4f       	sbci	r29, 0xFF	; 255
 60c:	28 83       	st	Y, r18
 60e:	39 83       	std	Y+1, r19	; 0x01
 610:	4a 83       	std	Y+2, r20	; 0x02
 612:	ce 59       	subi	r28, 0x9E	; 158
 614:	d0 40       	sbci	r29, 0x00	; 0
 616:	c7 56       	subi	r28, 0x67	; 103
 618:	df 4f       	sbci	r29, 0xFF	; 255
 61a:	28 83       	st	Y, r18
 61c:	39 83       	std	Y+1, r19	; 0x01
 61e:	4a 83       	std	Y+2, r20	; 0x02
 620:	c9 59       	subi	r28, 0x99	; 153
 622:	d0 40       	sbci	r29, 0x00	; 0
 624:	c7 56       	subi	r28, 0x67	; 103
 626:	df 4f       	sbci	r29, 0xFF	; 255
 628:	88 81       	ld	r24, Y
 62a:	99 81       	ldd	r25, Y+1	; 0x01
 62c:	aa 81       	ldd	r26, Y+2	; 0x02
 62e:	c9 59       	subi	r28, 0x99	; 153
 630:	d0 40       	sbci	r29, 0x00	; 0
 632:	fc 01       	movw	r30, r24
 634:	24 91       	lpm	r18, Z
 636:	a7 fd       	sbrc	r26, 7
 638:	20 81       	ld	r18, Z
 63a:	2b 32       	cpi	r18, 0x2B	; 43
 63c:	41 f4       	brne	.+16     	; 0x64e <__printf_core+0x196>
 63e:	cf 57       	subi	r28, 0x7F	; 127
 640:	df 4f       	sbci	r29, 0xFF	; 255
 642:	28 81       	ld	r18, Y
 644:	39 81       	ldd	r19, Y+1	; 0x01
 646:	c1 58       	subi	r28, 0x81	; 129
 648:	d0 40       	sbci	r29, 0x00	; 0
 64a:	24 60       	ori	r18, 0x04	; 4
 64c:	0b c0       	rjmp	.+22     	; 0x664 <__printf_core+0x1ac>
 64e:	2c 32       	cpi	r18, 0x2C	; 44
 650:	cc f0       	brlt	.+50     	; 0x684 <__printf_core+0x1cc>
 652:	2d 32       	cpi	r18, 0x2D	; 45
 654:	59 f5       	brne	.+86     	; 0x6ac <__printf_core+0x1f4>
 656:	cf 57       	subi	r28, 0x7F	; 127
 658:	df 4f       	sbci	r29, 0xFF	; 255
 65a:	28 81       	ld	r18, Y
 65c:	39 81       	ldd	r19, Y+1	; 0x01
 65e:	c1 58       	subi	r28, 0x81	; 129
 660:	d0 40       	sbci	r29, 0x00	; 0
 662:	21 60       	ori	r18, 0x01	; 1
 664:	cf 57       	subi	r28, 0x7F	; 127
 666:	df 4f       	sbci	r29, 0xFF	; 255
 668:	39 83       	std	Y+1, r19	; 0x01
 66a:	28 83       	st	Y, r18
 66c:	c1 58       	subi	r28, 0x81	; 129
 66e:	d0 40       	sbci	r29, 0x00	; 0
 670:	01 96       	adiw	r24, 0x01	; 1
 672:	a1 1d       	adc	r26, r1
 674:	c7 56       	subi	r28, 0x67	; 103
 676:	df 4f       	sbci	r29, 0xFF	; 255
 678:	88 83       	st	Y, r24
 67a:	99 83       	std	Y+1, r25	; 0x01
 67c:	aa 83       	std	Y+2, r26	; 0x02
 67e:	c9 59       	subi	r28, 0x99	; 153
 680:	d0 40       	sbci	r29, 0x00	; 0
 682:	d0 cf       	rjmp	.-96     	; 0x624 <__printf_core+0x16c>
 684:	20 32       	cpi	r18, 0x20	; 32
 686:	41 f4       	brne	.+16     	; 0x698 <__printf_core+0x1e0>
 688:	cf 57       	subi	r28, 0x7F	; 127
 68a:	df 4f       	sbci	r29, 0xFF	; 255
 68c:	28 81       	ld	r18, Y
 68e:	39 81       	ldd	r19, Y+1	; 0x01
 690:	c1 58       	subi	r28, 0x81	; 129
 692:	d0 40       	sbci	r29, 0x00	; 0
 694:	28 60       	ori	r18, 0x08	; 8
 696:	e6 cf       	rjmp	.-52     	; 0x664 <__printf_core+0x1ac>
 698:	23 32       	cpi	r18, 0x23	; 35
 69a:	91 f4       	brne	.+36     	; 0x6c0 <__printf_core+0x208>
 69c:	cf 57       	subi	r28, 0x7F	; 127
 69e:	df 4f       	sbci	r29, 0xFF	; 255
 6a0:	28 81       	ld	r18, Y
 6a2:	39 81       	ldd	r19, Y+1	; 0x01
 6a4:	c1 58       	subi	r28, 0x81	; 129
 6a6:	d0 40       	sbci	r29, 0x00	; 0
 6a8:	20 61       	ori	r18, 0x10	; 16
 6aa:	dc cf       	rjmp	.-72     	; 0x664 <__printf_core+0x1ac>
 6ac:	20 33       	cpi	r18, 0x30	; 48
 6ae:	41 f4       	brne	.+16     	; 0x6c0 <__printf_core+0x208>
 6b0:	cf 57       	subi	r28, 0x7F	; 127
 6b2:	df 4f       	sbci	r29, 0xFF	; 255
 6b4:	28 81       	ld	r18, Y
 6b6:	39 81       	ldd	r19, Y+1	; 0x01
 6b8:	c1 58       	subi	r28, 0x81	; 129
 6ba:	d0 40       	sbci	r29, 0x00	; 0
 6bc:	22 60       	ori	r18, 0x02	; 2
 6be:	d2 cf       	rjmp	.-92     	; 0x664 <__printf_core+0x1ac>
 6c0:	2a 32       	cpi	r18, 0x2A	; 42
 6c2:	99 f5       	brne	.+102    	; 0x72a <__printf_core+0x272>
 6c4:	01 96       	adiw	r24, 0x01	; 1
 6c6:	a1 1d       	adc	r26, r1
 6c8:	c7 56       	subi	r28, 0x67	; 103
 6ca:	df 4f       	sbci	r29, 0xFF	; 255
 6cc:	88 83       	st	Y, r24
 6ce:	99 83       	std	Y+1, r25	; 0x01
 6d0:	aa 83       	std	Y+2, r26	; 0x02
 6d2:	c9 59       	subi	r28, 0x99	; 153
 6d4:	d0 40       	sbci	r29, 0x00	; 0
 6d6:	d5 01       	movw	r26, r10
 6d8:	ed 91       	ld	r30, X+
 6da:	fc 91       	ld	r31, X
 6dc:	11 97       	sbiw	r26, 0x01	; 1
 6de:	cf 01       	movw	r24, r30
 6e0:	02 96       	adiw	r24, 0x02	; 2
 6e2:	8d 93       	st	X+, r24
 6e4:	9c 93       	st	X, r25
 6e6:	80 81       	ld	r24, Z
 6e8:	91 81       	ldd	r25, Z+1	; 0x01
 6ea:	cb 57       	subi	r28, 0x7B	; 123
 6ec:	df 4f       	sbci	r29, 0xFF	; 255
 6ee:	99 83       	std	Y+1, r25	; 0x01
 6f0:	88 83       	st	Y, r24
 6f2:	c5 58       	subi	r28, 0x85	; 133
 6f4:	d0 40       	sbci	r29, 0x00	; 0
 6f6:	97 ff       	sbrs	r25, 7
 6f8:	3e c0       	rjmp	.+124    	; 0x776 <__printf_core+0x2be>
 6fa:	cf 57       	subi	r28, 0x7F	; 127
 6fc:	df 4f       	sbci	r29, 0xFF	; 255
 6fe:	28 81       	ld	r18, Y
 700:	39 81       	ldd	r19, Y+1	; 0x01
 702:	c1 58       	subi	r28, 0x81	; 129
 704:	d0 40       	sbci	r29, 0x00	; 0
 706:	b1 e0       	ldi	r27, 0x01	; 1
 708:	2b 27       	eor	r18, r27
 70a:	cf 57       	subi	r28, 0x7F	; 127
 70c:	df 4f       	sbci	r29, 0xFF	; 255
 70e:	39 83       	std	Y+1, r19	; 0x01
 710:	28 83       	st	Y, r18
 712:	c1 58       	subi	r28, 0x81	; 129
 714:	d0 40       	sbci	r29, 0x00	; 0
 716:	91 95       	neg	r25
 718:	81 95       	neg	r24
 71a:	91 09       	sbc	r25, r1
 71c:	cb 57       	subi	r28, 0x7B	; 123
 71e:	df 4f       	sbci	r29, 0xFF	; 255
 720:	99 83       	std	Y+1, r25	; 0x01
 722:	88 83       	st	Y, r24
 724:	c5 58       	subi	r28, 0x85	; 133
 726:	d0 40       	sbci	r29, 0x00	; 0
 728:	26 c0       	rjmp	.+76     	; 0x776 <__printf_core+0x2be>
 72a:	bc 01       	movw	r22, r24
 72c:	8a 2f       	mov	r24, r26
 72e:	0e 94 3d 15 	call	0x2a7a	; 0x2a7a <atoi>
 732:	cb 57       	subi	r28, 0x7B	; 123
 734:	df 4f       	sbci	r29, 0xFF	; 255
 736:	99 83       	std	Y+1, r25	; 0x01
 738:	88 83       	st	Y, r24
 73a:	c5 58       	subi	r28, 0x85	; 133
 73c:	d0 40       	sbci	r29, 0x00	; 0
 73e:	c7 56       	subi	r28, 0x67	; 103
 740:	df 4f       	sbci	r29, 0xFF	; 255
 742:	28 81       	ld	r18, Y
 744:	39 81       	ldd	r19, Y+1	; 0x01
 746:	4a 81       	ldd	r20, Y+2	; 0x02
 748:	c9 59       	subi	r28, 0x99	; 153
 74a:	d0 40       	sbci	r29, 0x00	; 0
 74c:	f9 01       	movw	r30, r18
 74e:	84 91       	lpm	r24, Z
 750:	47 fd       	sbrc	r20, 7
 752:	80 81       	ld	r24, Z
 754:	08 2e       	mov	r0, r24
 756:	00 0c       	add	r0, r0
 758:	99 0b       	sbc	r25, r25
 75a:	c0 97       	sbiw	r24, 0x30	; 48
 75c:	0a 97       	sbiw	r24, 0x0a	; 10
 75e:	58 f4       	brcc	.+22     	; 0x776 <__printf_core+0x2be>
 760:	2f 5f       	subi	r18, 0xFF	; 255
 762:	3f 4f       	sbci	r19, 0xFF	; 255
 764:	4f 4f       	sbci	r20, 0xFF	; 255
 766:	c7 56       	subi	r28, 0x67	; 103
 768:	df 4f       	sbci	r29, 0xFF	; 255
 76a:	28 83       	st	Y, r18
 76c:	39 83       	std	Y+1, r19	; 0x01
 76e:	4a 83       	std	Y+2, r20	; 0x02
 770:	c9 59       	subi	r28, 0x99	; 153
 772:	d0 40       	sbci	r29, 0x00	; 0
 774:	e4 cf       	rjmp	.-56     	; 0x73e <__printf_core+0x286>
 776:	cf 57       	subi	r28, 0x7F	; 127
 778:	df 4f       	sbci	r29, 0xFF	; 255
 77a:	88 81       	ld	r24, Y
 77c:	99 81       	ldd	r25, Y+1	; 0x01
 77e:	c1 58       	subi	r28, 0x81	; 129
 780:	d0 40       	sbci	r29, 0x00	; 0
 782:	80 ff       	sbrs	r24, 0
 784:	07 c0       	rjmp	.+14     	; 0x794 <__printf_core+0x2dc>
 786:	8d 7f       	andi	r24, 0xFD	; 253
 788:	cf 57       	subi	r28, 0x7F	; 127
 78a:	df 4f       	sbci	r29, 0xFF	; 255
 78c:	99 83       	std	Y+1, r25	; 0x01
 78e:	88 83       	st	Y, r24
 790:	c1 58       	subi	r28, 0x81	; 129
 792:	d0 40       	sbci	r29, 0x00	; 0
 794:	c7 56       	subi	r28, 0x67	; 103
 796:	df 4f       	sbci	r29, 0xFF	; 255
 798:	88 81       	ld	r24, Y
 79a:	99 81       	ldd	r25, Y+1	; 0x01
 79c:	aa 81       	ldd	r26, Y+2	; 0x02
 79e:	c9 59       	subi	r28, 0x99	; 153
 7a0:	d0 40       	sbci	r29, 0x00	; 0
 7a2:	fc 01       	movw	r30, r24
 7a4:	24 91       	lpm	r18, Z
 7a6:	a7 fd       	sbrc	r26, 7
 7a8:	20 81       	ld	r18, Z
 7aa:	2e 32       	cpi	r18, 0x2E	; 46
 7ac:	09 f0       	breq	.+2      	; 0x7b0 <__printf_core+0x2f8>
 7ae:	58 c0       	rjmp	.+176    	; 0x860 <__DATA_REGION_LENGTH__+0x60>
 7b0:	cd 57       	subi	r28, 0x7D	; 125
 7b2:	df 4f       	sbci	r29, 0xFF	; 255
 7b4:	19 82       	std	Y+1, r1	; 0x01
 7b6:	18 82       	st	Y, r1
 7b8:	c3 58       	subi	r28, 0x83	; 131
 7ba:	d0 40       	sbci	r29, 0x00	; 0
 7bc:	9c 01       	movw	r18, r24
 7be:	4a 2f       	mov	r20, r26
 7c0:	2f 5f       	subi	r18, 0xFF	; 255
 7c2:	3f 4f       	sbci	r19, 0xFF	; 255
 7c4:	4f 4f       	sbci	r20, 0xFF	; 255
 7c6:	c7 56       	subi	r28, 0x67	; 103
 7c8:	df 4f       	sbci	r29, 0xFF	; 255
 7ca:	28 83       	st	Y, r18
 7cc:	39 83       	std	Y+1, r19	; 0x01
 7ce:	4a 83       	std	Y+2, r20	; 0x02
 7d0:	c9 59       	subi	r28, 0x99	; 153
 7d2:	d0 40       	sbci	r29, 0x00	; 0
 7d4:	f9 01       	movw	r30, r18
 7d6:	54 91       	lpm	r21, Z
 7d8:	47 fd       	sbrc	r20, 7
 7da:	50 81       	ld	r21, Z
 7dc:	5a 32       	cpi	r21, 0x2A	; 42
 7de:	d1 f4       	brne	.+52     	; 0x814 <__DATA_REGION_LENGTH__+0x14>
 7e0:	02 96       	adiw	r24, 0x02	; 2
 7e2:	a1 1d       	adc	r26, r1
 7e4:	c7 56       	subi	r28, 0x67	; 103
 7e6:	df 4f       	sbci	r29, 0xFF	; 255
 7e8:	88 83       	st	Y, r24
 7ea:	99 83       	std	Y+1, r25	; 0x01
 7ec:	aa 83       	std	Y+2, r26	; 0x02
 7ee:	c9 59       	subi	r28, 0x99	; 153
 7f0:	d0 40       	sbci	r29, 0x00	; 0
 7f2:	d5 01       	movw	r26, r10
 7f4:	ed 91       	ld	r30, X+
 7f6:	fc 91       	ld	r31, X
 7f8:	11 97       	sbiw	r26, 0x01	; 1
 7fa:	cf 01       	movw	r24, r30
 7fc:	02 96       	adiw	r24, 0x02	; 2
 7fe:	8d 93       	st	X+, r24
 800:	9c 93       	st	X, r25
 802:	80 81       	ld	r24, Z
 804:	91 81       	ldd	r25, Z+1	; 0x01
 806:	cd 57       	subi	r28, 0x7D	; 125
 808:	df 4f       	sbci	r29, 0xFF	; 255
 80a:	99 83       	std	Y+1, r25	; 0x01
 80c:	88 83       	st	Y, r24
 80e:	c3 58       	subi	r28, 0x83	; 131
 810:	d0 40       	sbci	r29, 0x00	; 0
 812:	26 c0       	rjmp	.+76     	; 0x860 <__DATA_REGION_LENGTH__+0x60>
 814:	84 2f       	mov	r24, r20
 816:	b9 01       	movw	r22, r18
 818:	0e 94 3d 15 	call	0x2a7a	; 0x2a7a <atoi>
 81c:	cd 57       	subi	r28, 0x7D	; 125
 81e:	df 4f       	sbci	r29, 0xFF	; 255
 820:	99 83       	std	Y+1, r25	; 0x01
 822:	88 83       	st	Y, r24
 824:	c3 58       	subi	r28, 0x83	; 131
 826:	d0 40       	sbci	r29, 0x00	; 0
 828:	c7 56       	subi	r28, 0x67	; 103
 82a:	df 4f       	sbci	r29, 0xFF	; 255
 82c:	28 81       	ld	r18, Y
 82e:	39 81       	ldd	r19, Y+1	; 0x01
 830:	4a 81       	ldd	r20, Y+2	; 0x02
 832:	c9 59       	subi	r28, 0x99	; 153
 834:	d0 40       	sbci	r29, 0x00	; 0
 836:	f9 01       	movw	r30, r18
 838:	84 91       	lpm	r24, Z
 83a:	47 fd       	sbrc	r20, 7
 83c:	80 81       	ld	r24, Z
 83e:	08 2e       	mov	r0, r24
 840:	00 0c       	add	r0, r0
 842:	99 0b       	sbc	r25, r25
 844:	c0 97       	sbiw	r24, 0x30	; 48
 846:	0a 97       	sbiw	r24, 0x0a	; 10
 848:	58 f4       	brcc	.+22     	; 0x860 <__DATA_REGION_LENGTH__+0x60>
 84a:	2f 5f       	subi	r18, 0xFF	; 255
 84c:	3f 4f       	sbci	r19, 0xFF	; 255
 84e:	4f 4f       	sbci	r20, 0xFF	; 255
 850:	c7 56       	subi	r28, 0x67	; 103
 852:	df 4f       	sbci	r29, 0xFF	; 255
 854:	28 83       	st	Y, r18
 856:	39 83       	std	Y+1, r19	; 0x01
 858:	4a 83       	std	Y+2, r20	; 0x02
 85a:	c9 59       	subi	r28, 0x99	; 153
 85c:	d0 40       	sbci	r29, 0x00	; 0
 85e:	e4 cf       	rjmp	.-56     	; 0x828 <__DATA_REGION_LENGTH__+0x28>
 860:	ce 01       	movw	r24, r28
 862:	87 56       	subi	r24, 0x67	; 103
 864:	9f 4f       	sbci	r25, 0xFF	; 255
 866:	0e 94 59 14 	call	0x28b2	; 0x28b2 <__fmt_state>
 86a:	18 2f       	mov	r17, r24
 86c:	c7 56       	subi	r28, 0x67	; 103
 86e:	df 4f       	sbci	r29, 0xFF	; 255
 870:	28 81       	ld	r18, Y
 872:	c9 59       	subi	r28, 0x99	; 153
 874:	d0 40       	sbci	r29, 0x00	; 0
 876:	c6 56       	subi	r28, 0x66	; 102
 878:	df 4f       	sbci	r29, 0xFF	; 255
 87a:	88 81       	ld	r24, Y
 87c:	ca 59       	subi	r28, 0x9A	; 154
 87e:	d0 40       	sbci	r29, 0x00	; 0
 880:	c5 56       	subi	r28, 0x65	; 101
 882:	df 4f       	sbci	r29, 0xFF	; 255
 884:	98 81       	ld	r25, Y
 886:	cb 59       	subi	r28, 0x9B	; 155
 888:	d0 40       	sbci	r29, 0x00	; 0
 88a:	e2 2f       	mov	r30, r18
 88c:	f8 2f       	mov	r31, r24
 88e:	84 91       	lpm	r24, Z
 890:	97 fd       	sbrc	r25, 7
 892:	80 81       	ld	r24, Z
 894:	08 2e       	mov	r0, r24
 896:	00 0c       	add	r0, r0
 898:	99 0b       	sbc	r25, r25
 89a:	0e 94 07 1a 	call	0x340e	; 0x340e <tolower>
 89e:	89 36       	cpi	r24, 0x69	; 105
 8a0:	91 05       	cpc	r25, r1
 8a2:	09 f4       	brne	.+2      	; 0x8a6 <__DATA_REGION_LENGTH__+0xa6>
 8a4:	5a c0       	rjmp	.+180    	; 0x95a <__stack+0x5b>
 8a6:	b4 f4       	brge	.+44     	; 0x8d4 <__DATA_REGION_LENGTH__+0xd4>
 8a8:	83 36       	cpi	r24, 0x63	; 99
 8aa:	91 05       	cpc	r25, r1
 8ac:	09 f4       	brne	.+2      	; 0x8b0 <__DATA_REGION_LENGTH__+0xb0>
 8ae:	66 c1       	rjmp	.+716    	; 0xb7c <__stack+0x27d>
 8b0:	44 f4       	brge	.+16     	; 0x8c2 <__DATA_REGION_LENGTH__+0xc2>
 8b2:	85 32       	cpi	r24, 0x25	; 37
 8b4:	91 05       	cpc	r25, r1
 8b6:	09 f4       	brne	.+2      	; 0x8ba <__DATA_REGION_LENGTH__+0xba>
 8b8:	a1 c1       	rjmp	.+834    	; 0xbfc <__stack+0x2fd>
 8ba:	81 36       	cpi	r24, 0x61	; 97
 8bc:	91 05       	cpc	r25, r1
 8be:	29 f1       	breq	.+74     	; 0x90a <__stack+0xb>
 8c0:	b3 c1       	rjmp	.+870    	; 0xc28 <__stack+0x329>
 8c2:	84 36       	cpi	r24, 0x64	; 100
 8c4:	91 05       	cpc	r25, r1
 8c6:	09 f4       	brne	.+2      	; 0x8ca <__DATA_REGION_LENGTH__+0xca>
 8c8:	48 c0       	rjmp	.+144    	; 0x95a <__stack+0x5b>
 8ca:	88 36       	cpi	r24, 0x68	; 104
 8cc:	91 05       	cpc	r25, r1
 8ce:	0c f4       	brge	.+2      	; 0x8d2 <__DATA_REGION_LENGTH__+0xd2>
 8d0:	2d c1       	rjmp	.+602    	; 0xb2c <__stack+0x22d>
 8d2:	aa c1       	rjmp	.+852    	; 0xc28 <__stack+0x329>
 8d4:	80 37       	cpi	r24, 0x70	; 112
 8d6:	91 05       	cpc	r25, r1
 8d8:	09 f4       	brne	.+2      	; 0x8dc <__DATA_REGION_LENGTH__+0xdc>
 8da:	cb c0       	rjmp	.+406    	; 0xa72 <__stack+0x173>
 8dc:	4c f4       	brge	.+18     	; 0x8f0 <__DATA_REGION_LENGTH__+0xf0>
 8de:	8e 36       	cpi	r24, 0x6E	; 110
 8e0:	91 05       	cpc	r25, r1
 8e2:	09 f4       	brne	.+2      	; 0x8e6 <__DATA_REGION_LENGTH__+0xe6>
 8e4:	19 c1       	rjmp	.+562    	; 0xb18 <__stack+0x219>
 8e6:	8f 36       	cpi	r24, 0x6F	; 111
 8e8:	91 05       	cpc	r25, r1
 8ea:	09 f4       	brne	.+2      	; 0x8ee <__DATA_REGION_LENGTH__+0xee>
 8ec:	7c c0       	rjmp	.+248    	; 0x9e6 <__stack+0xe7>
 8ee:	9c c1       	rjmp	.+824    	; 0xc28 <__stack+0x329>
 8f0:	85 37       	cpi	r24, 0x75	; 117
 8f2:	91 05       	cpc	r25, r1
 8f4:	09 f4       	brne	.+2      	; 0x8f8 <__DATA_REGION_LENGTH__+0xf8>
 8f6:	54 c0       	rjmp	.+168    	; 0x9a0 <__stack+0xa1>
 8f8:	88 37       	cpi	r24, 0x78	; 120
 8fa:	91 05       	cpc	r25, r1
 8fc:	09 f4       	brne	.+2      	; 0x900 <__stack+0x1>
 8fe:	96 c0       	rjmp	.+300    	; 0xa2c <__stack+0x12d>
 900:	83 37       	cpi	r24, 0x73	; 115
 902:	91 05       	cpc	r25, r1
 904:	09 f0       	breq	.+2      	; 0x908 <__stack+0x9>
 906:	90 c1       	rjmp	.+800    	; 0xc28 <__stack+0x329>
 908:	58 c1       	rjmp	.+688    	; 0xbba <__stack+0x2bb>
 90a:	61 2f       	mov	r22, r17
 90c:	70 e0       	ldi	r23, 0x00	; 0
 90e:	a5 01       	movw	r20, r10
 910:	c6 01       	movw	r24, r12
 912:	0e 94 0e 18 	call	0x301c	; 0x301c <__pop_float>
 916:	89 2b       	or	r24, r25
 918:	09 f4       	brne	.+2      	; 0x91c <__stack+0x1d>
 91a:	b7 c1       	rjmp	.+878    	; 0xc8a <__stack+0x38b>
 91c:	c7 56       	subi	r28, 0x67	; 103
 91e:	df 4f       	sbci	r29, 0xFF	; 255
 920:	88 81       	ld	r24, Y
 922:	99 81       	ldd	r25, Y+1	; 0x01
 924:	aa 81       	ldd	r26, Y+2	; 0x02
 926:	c9 59       	subi	r28, 0x99	; 153
 928:	d0 40       	sbci	r29, 0x00	; 0
 92a:	9c 01       	movw	r18, r24
 92c:	4a 2f       	mov	r20, r26
 92e:	2f 5f       	subi	r18, 0xFF	; 255
 930:	3f 4f       	sbci	r19, 0xFF	; 255
 932:	4f 4f       	sbci	r20, 0xFF	; 255
 934:	c7 56       	subi	r28, 0x67	; 103
 936:	df 4f       	sbci	r29, 0xFF	; 255
 938:	28 83       	st	Y, r18
 93a:	39 83       	std	Y+1, r19	; 0x01
 93c:	4a 83       	std	Y+2, r20	; 0x02
 93e:	c9 59       	subi	r28, 0x99	; 153
 940:	d0 40       	sbci	r29, 0x00	; 0
 942:	fc 01       	movw	r30, r24
 944:	24 91       	lpm	r18, Z
 946:	a7 fd       	sbrc	r26, 7
 948:	20 81       	ld	r18, Z
 94a:	a6 01       	movw	r20, r12
 94c:	be 01       	movw	r22, r28
 94e:	6f 57       	subi	r22, 0x7F	; 127
 950:	7f 4f       	sbci	r23, 0xFF	; 255
 952:	c4 01       	movw	r24, r8
 954:	0e 94 69 1a 	call	0x34d2	; 0x34d2 <__fmt_a>
 958:	95 c1       	rjmp	.+810    	; 0xc84 <__stack+0x385>
 95a:	61 2f       	mov	r22, r17
 95c:	70 e0       	ldi	r23, 0x00	; 0
 95e:	95 01       	movw	r18, r10
 960:	41 e0       	ldi	r20, 0x01	; 1
 962:	50 e0       	ldi	r21, 0x00	; 0
 964:	c6 01       	movw	r24, r12
 966:	0e 94 b5 0d 	call	0x1b6a	; 0x1b6a <__pop_int>
 96a:	89 2b       	or	r24, r25
 96c:	09 f4       	brne	.+2      	; 0x970 <__stack+0x71>
 96e:	8d c1       	rjmp	.+794    	; 0xc8a <__stack+0x38b>
 970:	c7 56       	subi	r28, 0x67	; 103
 972:	df 4f       	sbci	r29, 0xFF	; 255
 974:	88 81       	ld	r24, Y
 976:	99 81       	ldd	r25, Y+1	; 0x01
 978:	aa 81       	ldd	r26, Y+2	; 0x02
 97a:	c9 59       	subi	r28, 0x99	; 153
 97c:	d0 40       	sbci	r29, 0x00	; 0
 97e:	01 96       	adiw	r24, 0x01	; 1
 980:	a1 1d       	adc	r26, r1
 982:	c7 56       	subi	r28, 0x67	; 103
 984:	df 4f       	sbci	r29, 0xFF	; 255
 986:	88 83       	st	Y, r24
 988:	99 83       	std	Y+1, r25	; 0x01
 98a:	aa 83       	std	Y+2, r26	; 0x02
 98c:	c9 59       	subi	r28, 0x99	; 153
 98e:	d0 40       	sbci	r29, 0x00	; 0
 990:	a6 01       	movw	r20, r12
 992:	be 01       	movw	r22, r28
 994:	6f 57       	subi	r22, 0x7F	; 127
 996:	7f 4f       	sbci	r23, 0xFF	; 255
 998:	c4 01       	movw	r24, r8
 99a:	0e 94 66 1a 	call	0x34cc	; 0x34cc <__fmt_d>
 99e:	72 c1       	rjmp	.+740    	; 0xc84 <__stack+0x385>
 9a0:	61 2f       	mov	r22, r17
 9a2:	70 e0       	ldi	r23, 0x00	; 0
 9a4:	95 01       	movw	r18, r10
 9a6:	40 e0       	ldi	r20, 0x00	; 0
 9a8:	50 e0       	ldi	r21, 0x00	; 0
 9aa:	c6 01       	movw	r24, r12
 9ac:	0e 94 b5 0d 	call	0x1b6a	; 0x1b6a <__pop_int>
 9b0:	89 2b       	or	r24, r25
 9b2:	09 f4       	brne	.+2      	; 0x9b6 <__stack+0xb7>
 9b4:	6a c1       	rjmp	.+724    	; 0xc8a <__stack+0x38b>
 9b6:	c7 56       	subi	r28, 0x67	; 103
 9b8:	df 4f       	sbci	r29, 0xFF	; 255
 9ba:	88 81       	ld	r24, Y
 9bc:	99 81       	ldd	r25, Y+1	; 0x01
 9be:	aa 81       	ldd	r26, Y+2	; 0x02
 9c0:	c9 59       	subi	r28, 0x99	; 153
 9c2:	d0 40       	sbci	r29, 0x00	; 0
 9c4:	01 96       	adiw	r24, 0x01	; 1
 9c6:	a1 1d       	adc	r26, r1
 9c8:	c7 56       	subi	r28, 0x67	; 103
 9ca:	df 4f       	sbci	r29, 0xFF	; 255
 9cc:	88 83       	st	Y, r24
 9ce:	99 83       	std	Y+1, r25	; 0x01
 9d0:	aa 83       	std	Y+2, r26	; 0x02
 9d2:	c9 59       	subi	r28, 0x99	; 153
 9d4:	d0 40       	sbci	r29, 0x00	; 0
 9d6:	a6 01       	movw	r20, r12
 9d8:	be 01       	movw	r22, r28
 9da:	6f 57       	subi	r22, 0x7F	; 127
 9dc:	7f 4f       	sbci	r23, 0xFF	; 255
 9de:	c4 01       	movw	r24, r8
 9e0:	0e 94 66 1a 	call	0x34cc	; 0x34cc <__fmt_d>
 9e4:	4f c1       	rjmp	.+670    	; 0xc84 <__stack+0x385>
 9e6:	61 2f       	mov	r22, r17
 9e8:	70 e0       	ldi	r23, 0x00	; 0
 9ea:	95 01       	movw	r18, r10
 9ec:	40 e0       	ldi	r20, 0x00	; 0
 9ee:	50 e0       	ldi	r21, 0x00	; 0
 9f0:	c6 01       	movw	r24, r12
 9f2:	0e 94 b5 0d 	call	0x1b6a	; 0x1b6a <__pop_int>
 9f6:	89 2b       	or	r24, r25
 9f8:	09 f4       	brne	.+2      	; 0x9fc <__stack+0xfd>
 9fa:	47 c1       	rjmp	.+654    	; 0xc8a <__stack+0x38b>
 9fc:	c7 56       	subi	r28, 0x67	; 103
 9fe:	df 4f       	sbci	r29, 0xFF	; 255
 a00:	88 81       	ld	r24, Y
 a02:	99 81       	ldd	r25, Y+1	; 0x01
 a04:	aa 81       	ldd	r26, Y+2	; 0x02
 a06:	c9 59       	subi	r28, 0x99	; 153
 a08:	d0 40       	sbci	r29, 0x00	; 0
 a0a:	01 96       	adiw	r24, 0x01	; 1
 a0c:	a1 1d       	adc	r26, r1
 a0e:	c7 56       	subi	r28, 0x67	; 103
 a10:	df 4f       	sbci	r29, 0xFF	; 255
 a12:	88 83       	st	Y, r24
 a14:	99 83       	std	Y+1, r25	; 0x01
 a16:	aa 83       	std	Y+2, r26	; 0x02
 a18:	c9 59       	subi	r28, 0x99	; 153
 a1a:	d0 40       	sbci	r29, 0x00	; 0
 a1c:	a6 01       	movw	r20, r12
 a1e:	be 01       	movw	r22, r28
 a20:	6f 57       	subi	r22, 0x7F	; 127
 a22:	7f 4f       	sbci	r23, 0xFF	; 255
 a24:	c4 01       	movw	r24, r8
 a26:	0e 94 66 1a 	call	0x34cc	; 0x34cc <__fmt_d>
 a2a:	2c c1       	rjmp	.+600    	; 0xc84 <__stack+0x385>
 a2c:	61 2f       	mov	r22, r17
 a2e:	70 e0       	ldi	r23, 0x00	; 0
 a30:	95 01       	movw	r18, r10
 a32:	40 e0       	ldi	r20, 0x00	; 0
 a34:	50 e0       	ldi	r21, 0x00	; 0
 a36:	c6 01       	movw	r24, r12
 a38:	0e 94 b5 0d 	call	0x1b6a	; 0x1b6a <__pop_int>
 a3c:	89 2b       	or	r24, r25
 a3e:	09 f4       	brne	.+2      	; 0xa42 <__stack+0x143>
 a40:	24 c1       	rjmp	.+584    	; 0xc8a <__stack+0x38b>
 a42:	c7 56       	subi	r28, 0x67	; 103
 a44:	df 4f       	sbci	r29, 0xFF	; 255
 a46:	88 81       	ld	r24, Y
 a48:	99 81       	ldd	r25, Y+1	; 0x01
 a4a:	aa 81       	ldd	r26, Y+2	; 0x02
 a4c:	c9 59       	subi	r28, 0x99	; 153
 a4e:	d0 40       	sbci	r29, 0x00	; 0
 a50:	9c 01       	movw	r18, r24
 a52:	4a 2f       	mov	r20, r26
 a54:	2f 5f       	subi	r18, 0xFF	; 255
 a56:	3f 4f       	sbci	r19, 0xFF	; 255
 a58:	4f 4f       	sbci	r20, 0xFF	; 255
 a5a:	c7 56       	subi	r28, 0x67	; 103
 a5c:	df 4f       	sbci	r29, 0xFF	; 255
 a5e:	28 83       	st	Y, r18
 a60:	39 83       	std	Y+1, r19	; 0x01
 a62:	4a 83       	std	Y+2, r20	; 0x02
 a64:	c9 59       	subi	r28, 0x99	; 153
 a66:	d0 40       	sbci	r29, 0x00	; 0
 a68:	fc 01       	movw	r30, r24
 a6a:	24 91       	lpm	r18, Z
 a6c:	a7 fd       	sbrc	r26, 7
 a6e:	20 81       	ld	r18, Z
 a70:	4b c0       	rjmp	.+150    	; 0xb08 <__stack+0x209>
 a72:	95 01       	movw	r18, r10
 a74:	40 e0       	ldi	r20, 0x00	; 0
 a76:	50 e0       	ldi	r21, 0x00	; 0
 a78:	60 ef       	ldi	r22, 0xF0	; 240
 a7a:	70 e0       	ldi	r23, 0x00	; 0
 a7c:	c6 01       	movw	r24, r12
 a7e:	0e 94 b5 0d 	call	0x1b6a	; 0x1b6a <__pop_int>
 a82:	89 2b       	or	r24, r25
 a84:	09 f4       	brne	.+2      	; 0xa88 <__stack+0x189>
 a86:	01 c1       	rjmp	.+514    	; 0xc8a <__stack+0x38b>
 a88:	c7 56       	subi	r28, 0x67	; 103
 a8a:	df 4f       	sbci	r29, 0xFF	; 255
 a8c:	88 81       	ld	r24, Y
 a8e:	99 81       	ldd	r25, Y+1	; 0x01
 a90:	aa 81       	ldd	r26, Y+2	; 0x02
 a92:	c9 59       	subi	r28, 0x99	; 153
 a94:	d0 40       	sbci	r29, 0x00	; 0
 a96:	01 96       	adiw	r24, 0x01	; 1
 a98:	a1 1d       	adc	r26, r1
 a9a:	c7 56       	subi	r28, 0x67	; 103
 a9c:	df 4f       	sbci	r29, 0xFF	; 255
 a9e:	88 83       	st	Y, r24
 aa0:	99 83       	std	Y+1, r25	; 0x01
 aa2:	aa 83       	std	Y+2, r26	; 0x02
 aa4:	c9 59       	subi	r28, 0x99	; 153
 aa6:	d0 40       	sbci	r29, 0x00	; 0
 aa8:	86 e0       	ldi	r24, 0x06	; 6
 aaa:	22 eb       	ldi	r18, 0xB2	; 178
 aac:	34 e0       	ldi	r19, 0x04	; 4
 aae:	40 e0       	ldi	r20, 0x00	; 0
 ab0:	f9 01       	movw	r30, r18
 ab2:	de 01       	movw	r26, r28
 ab4:	ad 56       	subi	r26, 0x6D	; 109
 ab6:	bf 4f       	sbci	r27, 0xFF	; 255
 ab8:	74 2f       	mov	r23, r20
 aba:	0e 94 a6 19 	call	0x334c	; 0x334c <__movmemx_qi>
 abe:	d6 01       	movw	r26, r12
 ac0:	2c 91       	ld	r18, X
 ac2:	11 96       	adiw	r26, 0x01	; 1
 ac4:	3c 91       	ld	r19, X
 ac6:	11 97       	sbiw	r26, 0x01	; 1
 ac8:	12 96       	adiw	r26, 0x02	; 2
 aca:	4c 91       	ld	r20, X
 acc:	12 97       	sbiw	r26, 0x02	; 2
 ace:	13 96       	adiw	r26, 0x03	; 3
 ad0:	5c 91       	ld	r21, X
 ad2:	13 97       	sbiw	r26, 0x03	; 3
 ad4:	14 96       	adiw	r26, 0x04	; 4
 ad6:	6c 91       	ld	r22, X
 ad8:	14 97       	sbiw	r26, 0x04	; 4
 ada:	15 96       	adiw	r26, 0x05	; 5
 adc:	7c 91       	ld	r23, X
 ade:	15 97       	sbiw	r26, 0x05	; 5
 ae0:	16 96       	adiw	r26, 0x06	; 6
 ae2:	8c 91       	ld	r24, X
 ae4:	16 97       	sbiw	r26, 0x06	; 6
 ae6:	17 96       	adiw	r26, 0x07	; 7
 ae8:	9c 91       	ld	r25, X
 aea:	a0 e0       	ldi	r26, 0x00	; 0
 aec:	0e 94 bf 19 	call	0x337e	; 0x337e <__cmpdi2_s8>
 af0:	51 f4       	brne	.+20     	; 0xb06 <__stack+0x207>
 af2:	00 e0       	ldi	r16, 0x00	; 0
 af4:	10 e0       	ldi	r17, 0x00	; 0
 af6:	cf 55       	subi	r28, 0x5F	; 95
 af8:	df 4f       	sbci	r29, 0xFF	; 255
 afa:	28 81       	ld	r18, Y
 afc:	39 81       	ldd	r19, Y+1	; 0x01
 afe:	4a 81       	ldd	r20, Y+2	; 0x02
 b00:	c1 5a       	subi	r28, 0xA1	; 161
 b02:	d0 40       	sbci	r29, 0x00	; 0
 b04:	b9 c0       	rjmp	.+370    	; 0xc78 <__stack+0x379>
 b06:	28 e7       	ldi	r18, 0x78	; 120
 b08:	a6 01       	movw	r20, r12
 b0a:	be 01       	movw	r22, r28
 b0c:	6f 57       	subi	r22, 0x7F	; 127
 b0e:	7f 4f       	sbci	r23, 0xFF	; 255
 b10:	c4 01       	movw	r24, r8
 b12:	0e 94 69 1a 	call	0x34d2	; 0x34d2 <__fmt_a>
 b16:	b6 c0       	rjmp	.+364    	; 0xc84 <__stack+0x385>
 b18:	61 2f       	mov	r22, r17
 b1a:	70 e0       	ldi	r23, 0x00	; 0
 b1c:	95 01       	movw	r18, r10
 b1e:	a1 01       	movw	r20, r2
 b20:	4e 0d       	add	r20, r14
 b22:	5f 1d       	adc	r21, r15
 b24:	c6 01       	movw	r24, r12
 b26:	0e 94 1a 12 	call	0x2434	; 0x2434 <__pop_ptr>
 b2a:	af c0       	rjmp	.+350    	; 0xc8a <__stack+0x38b>
 b2c:	61 2f       	mov	r22, r17
 b2e:	70 e0       	ldi	r23, 0x00	; 0
 b30:	a5 01       	movw	r20, r10
 b32:	c6 01       	movw	r24, r12
 b34:	0e 94 0e 18 	call	0x301c	; 0x301c <__pop_float>
 b38:	89 2b       	or	r24, r25
 b3a:	09 f4       	brne	.+2      	; 0xb3e <__stack+0x23f>
 b3c:	a6 c0       	rjmp	.+332    	; 0xc8a <__stack+0x38b>
 b3e:	c7 56       	subi	r28, 0x67	; 103
 b40:	df 4f       	sbci	r29, 0xFF	; 255
 b42:	88 81       	ld	r24, Y
 b44:	99 81       	ldd	r25, Y+1	; 0x01
 b46:	aa 81       	ldd	r26, Y+2	; 0x02
 b48:	c9 59       	subi	r28, 0x99	; 153
 b4a:	d0 40       	sbci	r29, 0x00	; 0
 b4c:	9c 01       	movw	r18, r24
 b4e:	4a 2f       	mov	r20, r26
 b50:	2f 5f       	subi	r18, 0xFF	; 255
 b52:	3f 4f       	sbci	r19, 0xFF	; 255
 b54:	4f 4f       	sbci	r20, 0xFF	; 255
 b56:	c7 56       	subi	r28, 0x67	; 103
 b58:	df 4f       	sbci	r29, 0xFF	; 255
 b5a:	28 83       	st	Y, r18
 b5c:	39 83       	std	Y+1, r19	; 0x01
 b5e:	4a 83       	std	Y+2, r20	; 0x02
 b60:	c9 59       	subi	r28, 0x99	; 153
 b62:	d0 40       	sbci	r29, 0x00	; 0
 b64:	fc 01       	movw	r30, r24
 b66:	24 91       	lpm	r18, Z
 b68:	a7 fd       	sbrc	r26, 7
 b6a:	20 81       	ld	r18, Z
 b6c:	a6 01       	movw	r20, r12
 b6e:	be 01       	movw	r22, r28
 b70:	6f 57       	subi	r22, 0x7F	; 127
 b72:	7f 4f       	sbci	r23, 0xFF	; 255
 b74:	c4 01       	movw	r24, r8
 b76:	0e 94 6d 06 	call	0xcda	; 0xcda <__fmt_fp>
 b7a:	84 c0       	rjmp	.+264    	; 0xc84 <__stack+0x385>
 b7c:	10 38       	cpi	r17, 0x80	; 128
 b7e:	09 f0       	breq	.+2      	; 0xb82 <__stack+0x283>
 b80:	84 c0       	rjmp	.+264    	; 0xc8a <__stack+0x38b>
 b82:	c7 56       	subi	r28, 0x67	; 103
 b84:	df 4f       	sbci	r29, 0xFF	; 255
 b86:	88 81       	ld	r24, Y
 b88:	99 81       	ldd	r25, Y+1	; 0x01
 b8a:	aa 81       	ldd	r26, Y+2	; 0x02
 b8c:	c9 59       	subi	r28, 0x99	; 153
 b8e:	d0 40       	sbci	r29, 0x00	; 0
 b90:	01 96       	adiw	r24, 0x01	; 1
 b92:	a1 1d       	adc	r26, r1
 b94:	c7 56       	subi	r28, 0x67	; 103
 b96:	df 4f       	sbci	r29, 0xFF	; 255
 b98:	88 83       	st	Y, r24
 b9a:	99 83       	std	Y+1, r25	; 0x01
 b9c:	aa 83       	std	Y+2, r26	; 0x02
 b9e:	c9 59       	subi	r28, 0x99	; 153
 ba0:	d0 40       	sbci	r29, 0x00	; 0
 ba2:	d5 01       	movw	r26, r10
 ba4:	ed 91       	ld	r30, X+
 ba6:	fc 91       	ld	r31, X
 ba8:	11 97       	sbiw	r26, 0x01	; 1
 baa:	cf 01       	movw	r24, r30
 bac:	02 96       	adiw	r24, 0x02	; 2
 bae:	8d 93       	st	X+, r24
 bb0:	9c 93       	st	X, r25
 bb2:	80 81       	ld	r24, Z
 bb4:	f6 01       	movw	r30, r12
 bb6:	80 83       	st	Z, r24
 bb8:	5b c0       	rjmp	.+182    	; 0xc70 <__stack+0x371>
 bba:	10 38       	cpi	r17, 0x80	; 128
 bbc:	09 f0       	breq	.+2      	; 0xbc0 <__stack+0x2c1>
 bbe:	65 c0       	rjmp	.+202    	; 0xc8a <__stack+0x38b>
 bc0:	c7 56       	subi	r28, 0x67	; 103
 bc2:	df 4f       	sbci	r29, 0xFF	; 255
 bc4:	88 81       	ld	r24, Y
 bc6:	99 81       	ldd	r25, Y+1	; 0x01
 bc8:	aa 81       	ldd	r26, Y+2	; 0x02
 bca:	c9 59       	subi	r28, 0x99	; 153
 bcc:	d0 40       	sbci	r29, 0x00	; 0
 bce:	01 96       	adiw	r24, 0x01	; 1
 bd0:	a1 1d       	adc	r26, r1
 bd2:	c7 56       	subi	r28, 0x67	; 103
 bd4:	df 4f       	sbci	r29, 0xFF	; 255
 bd6:	88 83       	st	Y, r24
 bd8:	99 83       	std	Y+1, r25	; 0x01
 bda:	aa 83       	std	Y+2, r26	; 0x02
 bdc:	c9 59       	subi	r28, 0x99	; 153
 bde:	d0 40       	sbci	r29, 0x00	; 0
 be0:	d5 01       	movw	r26, r10
 be2:	ed 91       	ld	r30, X+
 be4:	fc 91       	ld	r31, X
 be6:	11 97       	sbiw	r26, 0x01	; 1
 be8:	cf 01       	movw	r24, r30
 bea:	03 96       	adiw	r24, 0x03	; 3
 bec:	8d 93       	st	X+, r24
 bee:	9c 93       	st	X, r25
 bf0:	20 81       	ld	r18, Z
 bf2:	31 81       	ldd	r19, Z+1	; 0x01
 bf4:	42 81       	ldd	r20, Z+2	; 0x02
 bf6:	00 e0       	ldi	r16, 0x00	; 0
 bf8:	10 e0       	ldi	r17, 0x00	; 0
 bfa:	3e c0       	rjmp	.+124    	; 0xc78 <__stack+0x379>
 bfc:	10 38       	cpi	r17, 0x80	; 128
 bfe:	09 f0       	breq	.+2      	; 0xc02 <__stack+0x303>
 c00:	44 c0       	rjmp	.+136    	; 0xc8a <__stack+0x38b>
 c02:	c7 56       	subi	r28, 0x67	; 103
 c04:	df 4f       	sbci	r29, 0xFF	; 255
 c06:	88 81       	ld	r24, Y
 c08:	99 81       	ldd	r25, Y+1	; 0x01
 c0a:	aa 81       	ldd	r26, Y+2	; 0x02
 c0c:	c9 59       	subi	r28, 0x99	; 153
 c0e:	d0 40       	sbci	r29, 0x00	; 0
 c10:	01 96       	adiw	r24, 0x01	; 1
 c12:	a1 1d       	adc	r26, r1
 c14:	c7 56       	subi	r28, 0x67	; 103
 c16:	df 4f       	sbci	r29, 0xFF	; 255
 c18:	88 83       	st	Y, r24
 c1a:	99 83       	std	Y+1, r25	; 0x01
 c1c:	aa 83       	std	Y+2, r26	; 0x02
 c1e:	c9 59       	subi	r28, 0x99	; 153
 c20:	d0 40       	sbci	r29, 0x00	; 0
 c22:	f6 01       	movw	r30, r12
 c24:	70 82       	st	Z, r7
 c26:	24 c0       	rjmp	.+72     	; 0xc70 <__stack+0x371>
 c28:	d6 01       	movw	r26, r12
 c2a:	7c 92       	st	X, r7
 c2c:	c2 56       	subi	r28, 0x62	; 98
 c2e:	df 4f       	sbci	r29, 0xFF	; 255
 c30:	28 81       	ld	r18, Y
 c32:	39 81       	ldd	r19, Y+1	; 0x01
 c34:	4a 81       	ldd	r20, Y+2	; 0x02
 c36:	ce 59       	subi	r28, 0x9E	; 158
 c38:	d0 40       	sbci	r29, 0x00	; 0
 c3a:	c7 56       	subi	r28, 0x67	; 103
 c3c:	df 4f       	sbci	r29, 0xFF	; 255
 c3e:	28 83       	st	Y, r18
 c40:	39 83       	std	Y+1, r19	; 0x01
 c42:	4a 83       	std	Y+2, r20	; 0x02
 c44:	c9 59       	subi	r28, 0x99	; 153
 c46:	d0 40       	sbci	r29, 0x00	; 0
 c48:	cf 57       	subi	r28, 0x7F	; 127
 c4a:	df 4f       	sbci	r29, 0xFF	; 255
 c4c:	19 82       	std	Y+1, r1	; 0x01
 c4e:	18 82       	st	Y, r1
 c50:	c1 58       	subi	r28, 0x81	; 129
 c52:	d0 40       	sbci	r29, 0x00	; 0
 c54:	cb 57       	subi	r28, 0x7B	; 123
 c56:	df 4f       	sbci	r29, 0xFF	; 255
 c58:	19 82       	std	Y+1, r1	; 0x01
 c5a:	18 82       	st	Y, r1
 c5c:	c5 58       	subi	r28, 0x85	; 133
 c5e:	d0 40       	sbci	r29, 0x00	; 0
 c60:	8f ef       	ldi	r24, 0xFF	; 255
 c62:	9f ef       	ldi	r25, 0xFF	; 255
 c64:	cd 57       	subi	r28, 0x7D	; 125
 c66:	df 4f       	sbci	r29, 0xFF	; 255
 c68:	99 83       	std	Y+1, r25	; 0x01
 c6a:	88 83       	st	Y, r24
 c6c:	c3 58       	subi	r28, 0x83	; 131
 c6e:	d0 40       	sbci	r29, 0x00	; 0
 c70:	01 e0       	ldi	r16, 0x01	; 1
 c72:	10 e0       	ldi	r17, 0x00	; 0
 c74:	46 2d       	mov	r20, r6
 c76:	92 01       	movw	r18, r4
 c78:	be 01       	movw	r22, r28
 c7a:	6f 57       	subi	r22, 0x7F	; 127
 c7c:	7f 4f       	sbci	r23, 0xFF	; 255
 c7e:	c4 01       	movw	r24, r8
 c80:	0e 94 6c 1a 	call	0x34d8	; 0x34d8 <__fmt_s>
 c84:	8e 0d       	add	r24, r14
 c86:	9f 1d       	adc	r25, r15
 c88:	11 c0       	rjmp	.+34     	; 0xcac <__stack+0x3ad>
 c8a:	c7 56       	subi	r28, 0x67	; 103
 c8c:	df 4f       	sbci	r29, 0xFF	; 255
 c8e:	88 81       	ld	r24, Y
 c90:	99 81       	ldd	r25, Y+1	; 0x01
 c92:	aa 81       	ldd	r26, Y+2	; 0x02
 c94:	c9 59       	subi	r28, 0x99	; 153
 c96:	d0 40       	sbci	r29, 0x00	; 0
 c98:	01 96       	adiw	r24, 0x01	; 1
 c9a:	a1 1d       	adc	r26, r1
 c9c:	c7 56       	subi	r28, 0x67	; 103
 c9e:	df 4f       	sbci	r29, 0xFF	; 255
 ca0:	88 83       	st	Y, r24
 ca2:	99 83       	std	Y+1, r25	; 0x01
 ca4:	aa 83       	std	Y+2, r26	; 0x02
 ca6:	c9 59       	subi	r28, 0x99	; 153
 ca8:	d0 40       	sbci	r29, 0x00	; 0
 caa:	c7 01       	movw	r24, r14
 cac:	71 01       	movw	r14, r2
 cae:	e8 0e       	add	r14, r24
 cb0:	f9 1e       	adc	r15, r25
 cb2:	e2 14       	cp	r14, r2
 cb4:	f3 04       	cpc	r15, r3
 cb6:	4c f4       	brge	.+18     	; 0xcca <__stack+0x3cb>
 cb8:	8f e4       	ldi	r24, 0x4F	; 79
 cba:	90 e0       	ldi	r25, 0x00	; 0
 cbc:	90 93 03 01 	sts	0x0103, r25	; 0x800103 <__errno_val+0x1>
 cc0:	80 93 02 01 	sts	0x0102, r24	; 0x800102 <__errno_val>
 cc4:	8f ef       	ldi	r24, 0xFF	; 255
 cc6:	9f ef       	ldi	r25, 0xFF	; 255
 cc8:	03 c0       	rjmp	.+6      	; 0xcd0 <__stack+0x3d1>
 cca:	17 01       	movw	r2, r14
 ccc:	21 cc       	rjmp	.-1982   	; 0x510 <__printf_core+0x58>
 cce:	c1 01       	movw	r24, r2
 cd0:	cd 55       	subi	r28, 0x5D	; 93
 cd2:	df 4f       	sbci	r29, 0xFF	; 255
 cd4:	e2 e1       	ldi	r30, 0x12	; 18
 cd6:	0c 94 c0 18 	jmp	0x3180	; 0x3180 <__epilogue_restores__>

Disassembly of section .text.fputc:

000029e8 <fputc>:
    29e8:	0f 93       	push	r16
    29ea:	1f 93       	push	r17
    29ec:	cf 93       	push	r28
    29ee:	df 93       	push	r29
    29f0:	db 01       	movw	r26, r22
    29f2:	2d 91       	ld	r18, X+
    29f4:	3c 91       	ld	r19, X
    29f6:	11 97       	sbiw	r26, 0x01	; 1
    29f8:	30 ff       	sbrs	r19, 0
    29fa:	25 c0       	rjmp	.+74     	; 0x2a46 <fputc+0x5e>
    29fc:	17 96       	adiw	r26, 0x07	; 7
    29fe:	4d 91       	ld	r20, X+
    2a00:	5c 91       	ld	r21, X
    2a02:	18 97       	sbiw	r26, 0x08	; 8
    2a04:	15 96       	adiw	r26, 0x05	; 5
    2a06:	2d 91       	ld	r18, X+
    2a08:	3c 91       	ld	r19, X
    2a0a:	16 97       	sbiw	r26, 0x06	; 6
    2a0c:	42 17       	cp	r20, r18
    2a0e:	53 07       	cpc	r21, r19
    2a10:	78 f4       	brcc	.+30     	; 0x2a30 <fputc+0x48>
    2a12:	12 96       	adiw	r26, 0x02	; 2
    2a14:	ed 91       	ld	r30, X+
    2a16:	fc 91       	ld	r31, X
    2a18:	13 97       	sbiw	r26, 0x03	; 3
    2a1a:	80 83       	st	Z, r24
    2a1c:	12 96       	adiw	r26, 0x02	; 2
    2a1e:	2d 91       	ld	r18, X+
    2a20:	3c 91       	ld	r19, X
    2a22:	13 97       	sbiw	r26, 0x03	; 3
    2a24:	2f 5f       	subi	r18, 0xFF	; 255
    2a26:	3f 4f       	sbci	r19, 0xFF	; 255
    2a28:	13 96       	adiw	r26, 0x03	; 3
    2a2a:	3c 93       	st	X, r19
    2a2c:	2e 93       	st	-X, r18
    2a2e:	12 97       	sbiw	r26, 0x02	; 2
    2a30:	17 96       	adiw	r26, 0x07	; 7
    2a32:	2d 91       	ld	r18, X+
    2a34:	3c 91       	ld	r19, X
    2a36:	18 97       	sbiw	r26, 0x08	; 8
    2a38:	2f 5f       	subi	r18, 0xFF	; 255
    2a3a:	3f 4f       	sbci	r19, 0xFF	; 255
    2a3c:	18 96       	adiw	r26, 0x08	; 8
    2a3e:	3c 93       	st	X, r19
    2a40:	2e 93       	st	-X, r18
    2a42:	17 97       	sbiw	r26, 0x07	; 7
    2a44:	15 c0       	rjmp	.+42     	; 0x2a70 <fputc+0x88>
    2a46:	1d 96       	adiw	r26, 0x0d	; 13
    2a48:	ed 91       	ld	r30, X+
    2a4a:	fc 91       	ld	r31, X
    2a4c:	1e 97       	sbiw	r26, 0x0e	; 14
    2a4e:	30 97       	sbiw	r30, 0x00	; 0
    2a50:	19 f4       	brne	.+6      	; 0x2a58 <fputc+0x70>
    2a52:	8f ef       	ldi	r24, 0xFF	; 255
    2a54:	9f ef       	ldi	r25, 0xFF	; 255
    2a56:	0c c0       	rjmp	.+24     	; 0x2a70 <fputc+0x88>
    2a58:	8b 01       	movw	r16, r22
    2a5a:	ec 01       	movw	r28, r24
    2a5c:	09 95       	icall
    2a5e:	89 2b       	or	r24, r25
    2a60:	c1 f7       	brne	.-16     	; 0x2a52 <fputc+0x6a>
    2a62:	f8 01       	movw	r30, r16
    2a64:	87 81       	ldd	r24, Z+7	; 0x07
    2a66:	90 85       	ldd	r25, Z+8	; 0x08
    2a68:	01 96       	adiw	r24, 0x01	; 1
    2a6a:	90 87       	std	Z+8, r25	; 0x08
    2a6c:	87 83       	std	Z+7, r24	; 0x07
    2a6e:	ce 01       	movw	r24, r28
    2a70:	df 91       	pop	r29
    2a72:	cf 91       	pop	r28
    2a74:	1f 91       	pop	r17
    2a76:	0f 91       	pop	r16
    2a78:	08 95       	ret

Disassembly of section .text.__pop_float:

0000301c <__pop_float>:
    301c:	fa 01       	movw	r30, r20
    301e:	60 38       	cpi	r22, 0x80	; 128
    3020:	71 05       	cpc	r23, r1
    3022:	cc f0       	brlt	.+50     	; 0x3056 <__pop_float+0x3a>
    3024:	62 38       	cpi	r22, 0x82	; 130
    3026:	71 05       	cpc	r23, r1
    3028:	1c f0       	brlt	.+6      	; 0x3030 <__pop_float+0x14>
    302a:	63 38       	cpi	r22, 0x83	; 131
    302c:	71 05       	cpc	r23, r1
    302e:	99 f4       	brne	.+38     	; 0x3056 <__pop_float+0x3a>
    3030:	a0 81       	ld	r26, Z
    3032:	b1 81       	ldd	r27, Z+1	; 0x01
    3034:	9d 01       	movw	r18, r26
    3036:	2c 5f       	subi	r18, 0xFC	; 252
    3038:	3f 4f       	sbci	r19, 0xFF	; 255
    303a:	31 83       	std	Z+1, r19	; 0x01
    303c:	20 83       	st	Z, r18
    303e:	4d 91       	ld	r20, X+
    3040:	5d 91       	ld	r21, X+
    3042:	6d 91       	ld	r22, X+
    3044:	7c 91       	ld	r23, X
    3046:	fc 01       	movw	r30, r24
    3048:	40 83       	st	Z, r20
    304a:	51 83       	std	Z+1, r21	; 0x01
    304c:	62 83       	std	Z+2, r22	; 0x02
    304e:	73 83       	std	Z+3, r23	; 0x03
    3050:	81 e0       	ldi	r24, 0x01	; 1
    3052:	90 e0       	ldi	r25, 0x00	; 0
    3054:	08 95       	ret
    3056:	80 e0       	ldi	r24, 0x00	; 0
    3058:	90 e0       	ldi	r25, 0x00	; 0
    305a:	08 95       	ret

Disassembly of section .text.__pop_int:

00001b6a <__pop_int>:
    1b6a:	0f 93       	push	r16
    1b6c:	1f 93       	push	r17
    1b6e:	cf 93       	push	r28
    1b70:	df 93       	push	r29
    1b72:	fc 01       	movw	r30, r24
    1b74:	d9 01       	movw	r26, r18
    1b76:	68 38       	cpi	r22, 0x88	; 136
    1b78:	71 05       	cpc	r23, r1
    1b7a:	31 f1       	breq	.+76     	; 0x1bc8 <__pop_int+0x5e>
    1b7c:	94 f4       	brge	.+36     	; 0x1ba2 <__pop_int+0x38>
    1b7e:	61 38       	cpi	r22, 0x81	; 129
    1b80:	71 05       	cpc	r23, r1
    1b82:	b1 f1       	breq	.+108    	; 0x1bf0 <__pop_int+0x86>
    1b84:	2c f4       	brge	.+10     	; 0x1b90 <__pop_int+0x26>
    1b86:	60 38       	cpi	r22, 0x80	; 128
    1b88:	71 05       	cpc	r23, r1
    1b8a:	09 f4       	brne	.+2      	; 0x1b8e <__pop_int+0x24>
    1b8c:	78 c0       	rjmp	.+240    	; 0x1c7e <__pop_int+0x114>
    1b8e:	9f c0       	rjmp	.+318    	; 0x1cce <__pop_int+0x164>
    1b90:	62 38       	cpi	r22, 0x82	; 130
    1b92:	71 05       	cpc	r23, r1
    1b94:	09 f4       	brne	.+2      	; 0x1b98 <__pop_int+0x2e>
    1b96:	59 c0       	rjmp	.+178    	; 0x1c4a <__pop_int+0xe0>
    1b98:	64 38       	cpi	r22, 0x84	; 132
    1b9a:	71 05       	cpc	r23, r1
    1b9c:	09 f4       	brne	.+2      	; 0x1ba0 <__pop_int+0x36>
    1b9e:	6f c0       	rjmp	.+222    	; 0x1c7e <__pop_int+0x114>
    1ba0:	96 c0       	rjmp	.+300    	; 0x1cce <__pop_int+0x164>
    1ba2:	60 3a       	cpi	r22, 0xA0	; 160
    1ba4:	71 05       	cpc	r23, r1
    1ba6:	09 f4       	brne	.+2      	; 0x1baa <__pop_int+0x40>
    1ba8:	48 c0       	rjmp	.+144    	; 0x1c3a <__pop_int+0xd0>
    1baa:	2c f4       	brge	.+10     	; 0x1bb6 <__pop_int+0x4c>
    1bac:	60 39       	cpi	r22, 0x90	; 144
    1bae:	71 05       	cpc	r23, r1
    1bb0:	09 f4       	brne	.+2      	; 0x1bb4 <__pop_int+0x4a>
    1bb2:	4b c0       	rjmp	.+150    	; 0x1c4a <__pop_int+0xe0>
    1bb4:	8c c0       	rjmp	.+280    	; 0x1cce <__pop_int+0x164>
    1bb6:	60 3c       	cpi	r22, 0xC0	; 192
    1bb8:	71 05       	cpc	r23, r1
    1bba:	09 f4       	brne	.+2      	; 0x1bbe <__pop_int+0x54>
    1bbc:	76 c0       	rjmp	.+236    	; 0x1caa <__pop_int+0x140>
    1bbe:	60 3f       	cpi	r22, 0xF0	; 240
    1bc0:	71 05       	cpc	r23, r1
    1bc2:	09 f4       	brne	.+2      	; 0x1bc6 <__pop_int+0x5c>
    1bc4:	72 c0       	rjmp	.+228    	; 0x1caa <__pop_int+0x140>
    1bc6:	83 c0       	rjmp	.+262    	; 0x1cce <__pop_int+0x164>
    1bc8:	cd 91       	ld	r28, X+
    1bca:	dc 91       	ld	r29, X
    1bcc:	11 97       	sbiw	r26, 0x01	; 1
    1bce:	ce 01       	movw	r24, r28
    1bd0:	02 96       	adiw	r24, 0x02	; 2
    1bd2:	8d 93       	st	X+, r24
    1bd4:	9c 93       	st	X, r25
    1bd6:	45 2b       	or	r20, r21
    1bd8:	39 f0       	breq	.+14     	; 0x1be8 <__pop_int+0x7e>
    1bda:	98 81       	ld	r25, Y
    1bdc:	89 2f       	mov	r24, r25
    1bde:	88 0f       	add	r24, r24
    1be0:	88 0b       	sbc	r24, r24
    1be2:	90 83       	st	Z, r25
    1be4:	81 83       	std	Z+1, r24	; 0x01
    1be6:	5b c0       	rjmp	.+182    	; 0x1c9e <__pop_int+0x134>
    1be8:	88 81       	ld	r24, Y
    1bea:	80 83       	st	Z, r24
    1bec:	11 82       	std	Z+1, r1	; 0x01
    1bee:	68 c0       	rjmp	.+208    	; 0x1cc0 <__pop_int+0x156>
    1bf0:	cd 91       	ld	r28, X+
    1bf2:	dc 91       	ld	r29, X
    1bf4:	11 97       	sbiw	r26, 0x01	; 1
    1bf6:	ce 01       	movw	r24, r28
    1bf8:	04 96       	adiw	r24, 0x04	; 4
    1bfa:	8d 93       	st	X+, r24
    1bfc:	9c 93       	st	X, r25
    1bfe:	45 2b       	or	r20, r21
    1c00:	99 f0       	breq	.+38     	; 0x1c28 <__pop_int+0xbe>
    1c02:	88 81       	ld	r24, Y
    1c04:	99 81       	ldd	r25, Y+1	; 0x01
    1c06:	aa 81       	ldd	r26, Y+2	; 0x02
    1c08:	bb 81       	ldd	r27, Y+3	; 0x03
    1c0a:	ac 01       	movw	r20, r24
    1c0c:	bd 01       	movw	r22, r26
    1c0e:	77 0f       	add	r23, r23
    1c10:	44 0b       	sbc	r20, r20
    1c12:	54 2f       	mov	r21, r20
    1c14:	ba 01       	movw	r22, r20
    1c16:	80 83       	st	Z, r24
    1c18:	91 83       	std	Z+1, r25	; 0x01
    1c1a:	a2 83       	std	Z+2, r26	; 0x02
    1c1c:	b3 83       	std	Z+3, r27	; 0x03
    1c1e:	44 83       	std	Z+4, r20	; 0x04
    1c20:	45 83       	std	Z+5, r20	; 0x05
    1c22:	46 83       	std	Z+6, r20	; 0x06
    1c24:	47 83       	std	Z+7, r20	; 0x07
    1c26:	28 c0       	rjmp	.+80     	; 0x1c78 <__pop_int+0x10e>
    1c28:	08 81       	ld	r16, Y
    1c2a:	19 81       	ldd	r17, Y+1	; 0x01
    1c2c:	2a 81       	ldd	r18, Y+2	; 0x02
    1c2e:	3b 81       	ldd	r19, Y+3	; 0x03
    1c30:	00 83       	st	Z, r16
    1c32:	11 83       	std	Z+1, r17	; 0x01
    1c34:	22 83       	std	Z+2, r18	; 0x02
    1c36:	33 83       	std	Z+3, r19	; 0x03
    1c38:	45 c0       	rjmp	.+138    	; 0x1cc4 <__pop_int+0x15a>
    1c3a:	cd 91       	ld	r28, X+
    1c3c:	dc 91       	ld	r29, X
    1c3e:	11 97       	sbiw	r26, 0x01	; 1
    1c40:	ce 01       	movw	r24, r28
    1c42:	02 96       	adiw	r24, 0x02	; 2
    1c44:	8d 93       	st	X+, r24
    1c46:	9c 93       	st	X, r25
    1c48:	23 c0       	rjmp	.+70     	; 0x1c90 <__pop_int+0x126>
    1c4a:	cd 91       	ld	r28, X+
    1c4c:	dc 91       	ld	r29, X
    1c4e:	11 97       	sbiw	r26, 0x01	; 1
    1c50:	ce 01       	movw	r24, r28
    1c52:	08 96       	adiw	r24, 0x08	; 8
    1c54:	8d 93       	st	X+, r24
    1c56:	9c 93       	st	X, r25
    1c58:	78 81       	ld	r23, Y
    1c5a:	69 81       	ldd	r22, Y+1	; 0x01
    1c5c:	5a 81       	ldd	r21, Y+2	; 0x02
    1c5e:	4b 81       	ldd	r20, Y+3	; 0x03
    1c60:	3c 81       	ldd	r19, Y+4	; 0x04
    1c62:	2d 81       	ldd	r18, Y+5	; 0x05
    1c64:	9e 81       	ldd	r25, Y+6	; 0x06
    1c66:	8f 81       	ldd	r24, Y+7	; 0x07
    1c68:	70 83       	st	Z, r23
    1c6a:	61 83       	std	Z+1, r22	; 0x01
    1c6c:	52 83       	std	Z+2, r21	; 0x02
    1c6e:	43 83       	std	Z+3, r20	; 0x03
    1c70:	34 83       	std	Z+4, r19	; 0x04
    1c72:	25 83       	std	Z+5, r18	; 0x05
    1c74:	96 83       	std	Z+6, r25	; 0x06
    1c76:	87 83       	std	Z+7, r24	; 0x07
    1c78:	81 e0       	ldi	r24, 0x01	; 1
    1c7a:	90 e0       	ldi	r25, 0x00	; 0
    1c7c:	2a c0       	rjmp	.+84     	; 0x1cd2 <__pop_int+0x168>
    1c7e:	cd 91       	ld	r28, X+
    1c80:	dc 91       	ld	r29, X
    1c82:	11 97       	sbiw	r26, 0x01	; 1
    1c84:	ce 01       	movw	r24, r28
    1c86:	02 96       	adiw	r24, 0x02	; 2
    1c88:	8d 93       	st	X+, r24
    1c8a:	9c 93       	st	X, r25
    1c8c:	45 2b       	or	r20, r21
    1c8e:	a1 f0       	breq	.+40     	; 0x1cb8 <__pop_int+0x14e>
    1c90:	99 81       	ldd	r25, Y+1	; 0x01
    1c92:	28 81       	ld	r18, Y
    1c94:	89 2f       	mov	r24, r25
    1c96:	88 0f       	add	r24, r24
    1c98:	88 0b       	sbc	r24, r24
    1c9a:	20 83       	st	Z, r18
    1c9c:	91 83       	std	Z+1, r25	; 0x01
    1c9e:	82 83       	std	Z+2, r24	; 0x02
    1ca0:	83 83       	std	Z+3, r24	; 0x03
    1ca2:	84 83       	std	Z+4, r24	; 0x04
    1ca4:	85 83       	std	Z+5, r24	; 0x05
    1ca6:	86 83       	std	Z+6, r24	; 0x06
    1ca8:	e6 cf       	rjmp	.-52     	; 0x1c76 <__pop_int+0x10c>
    1caa:	cd 91       	ld	r28, X+
    1cac:	dc 91       	ld	r29, X
    1cae:	11 97       	sbiw	r26, 0x01	; 1
    1cb0:	ce 01       	movw	r24, r28
    1cb2:	02 96       	adiw	r24, 0x02	; 2
    1cb4:	8d 93       	st	X+, r24
    1cb6:	9c 93       	st	X, r25
    1cb8:	08 81       	ld	r16, Y
    1cba:	19 81       	ldd	r17, Y+1	; 0x01
    1cbc:	00 83       	st	Z, r16
    1cbe:	11 83       	std	Z+1, r17	; 0x01
    1cc0:	12 82       	std	Z+2, r1	; 0x02
    1cc2:	13 82       	std	Z+3, r1	; 0x03
    1cc4:	14 82       	std	Z+4, r1	; 0x04
    1cc6:	15 82       	std	Z+5, r1	; 0x05
    1cc8:	16 82       	std	Z+6, r1	; 0x06
    1cca:	17 82       	std	Z+7, r1	; 0x07
    1ccc:	d5 cf       	rjmp	.-86     	; 0x1c78 <__pop_int+0x10e>
    1cce:	80 e0       	ldi	r24, 0x00	; 0
    1cd0:	90 e0       	ldi	r25, 0x00	; 0
    1cd2:	df 91       	pop	r29
    1cd4:	cf 91       	pop	r28
    1cd6:	1f 91       	pop	r17
    1cd8:	0f 91       	pop	r16
    1cda:	08 95       	ret

Disassembly of section .text.__pop_ptr:

00002434 <__pop_ptr>:
    2434:	cf 93       	push	r28
    2436:	df 93       	push	r29
    2438:	dc 01       	movw	r26, r24
    243a:	f9 01       	movw	r30, r18
    243c:	64 38       	cpi	r22, 0x84	; 132
    243e:	71 05       	cpc	r23, r1
    2440:	d9 f1       	breq	.+118    	; 0x24b8 <__pop_ptr+0x84>
    2442:	64 f4       	brge	.+24     	; 0x245c <__pop_ptr+0x28>
    2444:	61 38       	cpi	r22, 0x81	; 129
    2446:	71 05       	cpc	r23, r1
    2448:	21 f1       	breq	.+72     	; 0x2492 <__pop_ptr+0x5e>
    244a:	62 38       	cpi	r22, 0x82	; 130
    244c:	71 05       	cpc	r23, r1
    244e:	09 f4       	brne	.+2      	; 0x2452 <__pop_ptr+0x1e>
    2450:	40 c0       	rjmp	.+128    	; 0x24d2 <__pop_ptr+0x9e>
    2452:	60 38       	cpi	r22, 0x80	; 128
    2454:	71 05       	cpc	r23, r1
    2456:	09 f0       	breq	.+2      	; 0x245a <__pop_ptr+0x26>
    2458:	54 c0       	rjmp	.+168    	; 0x2502 <__pop_ptr+0xce>
    245a:	2e c0       	rjmp	.+92     	; 0x24b8 <__pop_ptr+0x84>
    245c:	60 39       	cpi	r22, 0x90	; 144
    245e:	71 05       	cpc	r23, r1
    2460:	c1 f1       	breq	.+112    	; 0x24d2 <__pop_ptr+0x9e>
    2462:	84 f4       	brge	.+32     	; 0x2484 <__pop_ptr+0x50>
    2464:	68 38       	cpi	r22, 0x88	; 136
    2466:	71 05       	cpc	r23, r1
    2468:	09 f0       	breq	.+2      	; 0x246c <__pop_ptr+0x38>
    246a:	4b c0       	rjmp	.+150    	; 0x2502 <__pop_ptr+0xce>
    246c:	c0 81       	ld	r28, Z
    246e:	d1 81       	ldd	r29, Z+1	; 0x01
    2470:	ce 01       	movw	r24, r28
    2472:	02 96       	adiw	r24, 0x02	; 2
    2474:	91 83       	std	Z+1, r25	; 0x01
    2476:	80 83       	st	Z, r24
    2478:	e8 81       	ld	r30, Y
    247a:	f9 81       	ldd	r31, Y+1	; 0x01
    247c:	ed 93       	st	X+, r30
    247e:	fc 93       	st	X, r31
    2480:	40 83       	st	Z, r20
    2482:	3c c0       	rjmp	.+120    	; 0x24fc <__pop_ptr+0xc8>
    2484:	60 3a       	cpi	r22, 0xA0	; 160
    2486:	71 05       	cpc	r23, r1
    2488:	b9 f0       	breq	.+46     	; 0x24b8 <__pop_ptr+0x84>
    248a:	60 3c       	cpi	r22, 0xC0	; 192
    248c:	71 05       	cpc	r23, r1
    248e:	a1 f0       	breq	.+40     	; 0x24b8 <__pop_ptr+0x84>
    2490:	38 c0       	rjmp	.+112    	; 0x2502 <__pop_ptr+0xce>
    2492:	c0 81       	ld	r28, Z
    2494:	d1 81       	ldd	r29, Z+1	; 0x01
    2496:	ce 01       	movw	r24, r28
    2498:	02 96       	adiw	r24, 0x02	; 2
    249a:	91 83       	std	Z+1, r25	; 0x01
    249c:	80 83       	st	Z, r24
    249e:	e8 81       	ld	r30, Y
    24a0:	f9 81       	ldd	r31, Y+1	; 0x01
    24a2:	ed 93       	st	X+, r30
    24a4:	fc 93       	st	X, r31
    24a6:	05 2e       	mov	r0, r21
    24a8:	00 0c       	add	r0, r0
    24aa:	66 0b       	sbc	r22, r22
    24ac:	77 0b       	sbc	r23, r23
    24ae:	40 83       	st	Z, r20
    24b0:	51 83       	std	Z+1, r21	; 0x01
    24b2:	62 83       	std	Z+2, r22	; 0x02
    24b4:	73 83       	std	Z+3, r23	; 0x03
    24b6:	22 c0       	rjmp	.+68     	; 0x24fc <__pop_ptr+0xc8>
    24b8:	c0 81       	ld	r28, Z
    24ba:	d1 81       	ldd	r29, Z+1	; 0x01
    24bc:	ce 01       	movw	r24, r28
    24be:	02 96       	adiw	r24, 0x02	; 2
    24c0:	91 83       	std	Z+1, r25	; 0x01
    24c2:	80 83       	st	Z, r24
    24c4:	e8 81       	ld	r30, Y
    24c6:	f9 81       	ldd	r31, Y+1	; 0x01
    24c8:	ed 93       	st	X+, r30
    24ca:	fc 93       	st	X, r31
    24cc:	51 83       	std	Z+1, r21	; 0x01
    24ce:	40 83       	st	Z, r20
    24d0:	15 c0       	rjmp	.+42     	; 0x24fc <__pop_ptr+0xc8>
    24d2:	c0 81       	ld	r28, Z
    24d4:	d1 81       	ldd	r29, Z+1	; 0x01
    24d6:	ce 01       	movw	r24, r28
    24d8:	02 96       	adiw	r24, 0x02	; 2
    24da:	91 83       	std	Z+1, r25	; 0x01
    24dc:	80 83       	st	Z, r24
    24de:	e8 81       	ld	r30, Y
    24e0:	f9 81       	ldd	r31, Y+1	; 0x01
    24e2:	ed 93       	st	X+, r30
    24e4:	fc 93       	st	X, r31
    24e6:	51 83       	std	Z+1, r21	; 0x01
    24e8:	40 83       	st	Z, r20
    24ea:	85 2f       	mov	r24, r21
    24ec:	88 0f       	add	r24, r24
    24ee:	88 0b       	sbc	r24, r24
    24f0:	82 83       	std	Z+2, r24	; 0x02
    24f2:	83 83       	std	Z+3, r24	; 0x03
    24f4:	84 83       	std	Z+4, r24	; 0x04
    24f6:	85 83       	std	Z+5, r24	; 0x05
    24f8:	86 83       	std	Z+6, r24	; 0x06
    24fa:	87 83       	std	Z+7, r24	; 0x07
    24fc:	81 e0       	ldi	r24, 0x01	; 1
    24fe:	90 e0       	ldi	r25, 0x00	; 0
    2500:	02 c0       	rjmp	.+4      	; 0x2506 <__pop_ptr+0xd2>
    2502:	80 e0       	ldi	r24, 0x00	; 0
    2504:	90 e0       	ldi	r25, 0x00	; 0
    2506:	df 91       	pop	r29
    2508:	cf 91       	pop	r28
    250a:	08 95       	ret

Disassembly of section .text.atoi:

00002a7a <atoi>:
    2a7a:	cf 93       	push	r28
    2a7c:	9b 01       	movw	r18, r22
    2a7e:	48 2f       	mov	r20, r24
    2a80:	f9 01       	movw	r30, r18
    2a82:	84 91       	lpm	r24, Z
    2a84:	47 fd       	sbrc	r20, 7
    2a86:	80 81       	ld	r24, Z
    2a88:	80 32       	cpi	r24, 0x20	; 32
    2a8a:	c9 f1       	breq	.+114    	; 0x2afe <atoi+0x84>
    2a8c:	68 2f       	mov	r22, r24
    2a8e:	08 2e       	mov	r0, r24
    2a90:	00 0c       	add	r0, r0
    2a92:	77 0b       	sbc	r23, r23
    2a94:	69 50       	subi	r22, 0x09	; 9
    2a96:	71 09       	sbc	r23, r1
    2a98:	65 30       	cpi	r22, 0x05	; 5
    2a9a:	71 05       	cpc	r23, r1
    2a9c:	80 f1       	brcs	.+96     	; 0x2afe <atoi+0x84>
    2a9e:	8b 32       	cpi	r24, 0x2B	; 43
    2aa0:	49 f5       	brne	.+82     	; 0x2af4 <atoi+0x7a>
    2aa2:	a0 e0       	ldi	r26, 0x00	; 0
    2aa4:	b0 e0       	ldi	r27, 0x00	; 0
    2aa6:	2f 5f       	subi	r18, 0xFF	; 255
    2aa8:	3f 4f       	sbci	r19, 0xFF	; 255
    2aaa:	4f 4f       	sbci	r20, 0xFF	; 255
    2aac:	02 c0       	rjmp	.+4      	; 0x2ab2 <atoi+0x38>
    2aae:	a0 e0       	ldi	r26, 0x00	; 0
    2ab0:	b0 e0       	ldi	r27, 0x00	; 0
    2ab2:	80 e0       	ldi	r24, 0x00	; 0
    2ab4:	90 e0       	ldi	r25, 0x00	; 0
    2ab6:	ca e0       	ldi	r28, 0x0A	; 10
    2ab8:	f9 01       	movw	r30, r18
    2aba:	64 91       	lpm	r22, Z
    2abc:	47 fd       	sbrc	r20, 7
    2abe:	60 81       	ld	r22, Z
    2ac0:	06 2e       	mov	r0, r22
    2ac2:	00 0c       	add	r0, r0
    2ac4:	77 0b       	sbc	r23, r23
    2ac6:	60 53       	subi	r22, 0x30	; 48
    2ac8:	71 09       	sbc	r23, r1
    2aca:	6a 30       	cpi	r22, 0x0A	; 10
    2acc:	71 05       	cpc	r23, r1
    2ace:	60 f4       	brcc	.+24     	; 0x2ae8 <atoi+0x6e>
    2ad0:	c8 9f       	mul	r28, r24
    2ad2:	f0 01       	movw	r30, r0
    2ad4:	c9 9f       	mul	r28, r25
    2ad6:	f0 0d       	add	r31, r0
    2ad8:	11 24       	eor	r1, r1
    2ada:	2f 5f       	subi	r18, 0xFF	; 255
    2adc:	3f 4f       	sbci	r19, 0xFF	; 255
    2ade:	4f 4f       	sbci	r20, 0xFF	; 255
    2ae0:	cf 01       	movw	r24, r30
    2ae2:	86 1b       	sub	r24, r22
    2ae4:	97 0b       	sbc	r25, r23
    2ae6:	e8 cf       	rjmp	.-48     	; 0x2ab8 <atoi+0x3e>
    2ae8:	ab 2b       	or	r26, r27
    2aea:	69 f4       	brne	.+26     	; 0x2b06 <atoi+0x8c>
    2aec:	91 95       	neg	r25
    2aee:	81 95       	neg	r24
    2af0:	91 09       	sbc	r25, r1
    2af2:	09 c0       	rjmp	.+18     	; 0x2b06 <atoi+0x8c>
    2af4:	8d 32       	cpi	r24, 0x2D	; 45
    2af6:	d9 f6       	brne	.-74     	; 0x2aae <atoi+0x34>
    2af8:	a1 e0       	ldi	r26, 0x01	; 1
    2afa:	b0 e0       	ldi	r27, 0x00	; 0
    2afc:	d4 cf       	rjmp	.-88     	; 0x2aa6 <atoi+0x2c>
    2afe:	2f 5f       	subi	r18, 0xFF	; 255
    2b00:	3f 4f       	sbci	r19, 0xFF	; 255
    2b02:	4f 4f       	sbci	r20, 0xFF	; 255
    2b04:	bd cf       	rjmp	.-134    	; 0x2a80 <atoi+0x6>
    2b06:	cf 91       	pop	r28
    2b08:	08 95       	ret

Disassembly of section .text.memset:

000033ec <memset>:
    33ec:	fc 01       	movw	r30, r24
    33ee:	48 0f       	add	r20, r24
    33f0:	59 1f       	adc	r21, r25
    33f2:	e4 17       	cp	r30, r20
    33f4:	f5 07       	cpc	r31, r21
    33f6:	11 f0       	breq	.+4      	; 0x33fc <memset+0x10>
    33f8:	61 93       	st	Z+, r22
    33fa:	fb cf       	rjmp	.-10     	; 0x33f2 <memset+0x6>
    33fc:	08 95       	ret

Disassembly of section .text.strcpy:

00003330 <strcpy>:
    3330:	9a 01       	movw	r18, r20
    3332:	46 2f       	mov	r20, r22
    3334:	dc 01       	movw	r26, r24
    3336:	f9 01       	movw	r30, r18
    3338:	54 91       	lpm	r21, Z
    333a:	47 fd       	sbrc	r20, 7
    333c:	50 81       	ld	r21, Z
    333e:	5d 93       	st	X+, r21
    3340:	2f 5f       	subi	r18, 0xFF	; 255
    3342:	3f 4f       	sbci	r19, 0xFF	; 255
    3344:	4f 4f       	sbci	r20, 0xFF	; 255
    3346:	51 11       	cpse	r21, r1
    3348:	f6 cf       	rjmp	.-20     	; 0x3336 <strcpy+0x6>
    334a:	08 95       	ret

Disassembly of section .text.strlen:

0000326c <strlen>:
    326c:	cf 92       	push	r12
    326e:	df 92       	push	r13
    3270:	ef 92       	push	r14
    3272:	6b 01       	movw	r12, r22
    3274:	e8 2e       	mov	r14, r24
    3276:	a8 2f       	mov	r26, r24
    3278:	cb 01       	movw	r24, r22
    327a:	fc 01       	movw	r30, r24
    327c:	24 91       	lpm	r18, Z
    327e:	a7 fd       	sbrc	r26, 7
    3280:	20 81       	ld	r18, Z
    3282:	22 23       	and	r18, r18
    3284:	19 f0       	breq	.+6      	; 0x328c <strlen+0x20>
    3286:	01 96       	adiw	r24, 0x01	; 1
    3288:	a1 1d       	adc	r26, r1
    328a:	f7 cf       	rjmp	.-18     	; 0x327a <strlen+0xe>
    328c:	8c 19       	sub	r24, r12
    328e:	9d 09       	sbc	r25, r13
    3290:	ef 90       	pop	r14
    3292:	df 90       	pop	r13
    3294:	cf 90       	pop	r12
    3296:	08 95       	ret

Disassembly of section .text.tolower:

0000340e <tolower>:
    340e:	9c 01       	movw	r18, r24
    3410:	21 54       	subi	r18, 0x41	; 65
    3412:	31 09       	sbc	r19, r1
    3414:	2a 31       	cpi	r18, 0x1A	; 26
    3416:	31 05       	cpc	r19, r1
    3418:	08 f4       	brcc	.+2      	; 0x341c <tolower+0xe>
    341a:	80 62       	ori	r24, 0x20	; 32
    341c:	08 95       	ret

Disassembly of section .text._Exit:

000034e2 <_Exit>:
    34e2:	0e 94 7f 00 	call	0xfe	; 0xfe <_exit>

Disassembly of section .text.__vsprintf:

00003366 <__vsprintf>:
    3366:	0f 93       	push	r16
    3368:	1f 93       	push	r17
    336a:	89 01       	movw	r16, r18
    336c:	9a 01       	movw	r18, r20
    336e:	46 2f       	mov	r20, r22
    3370:	6f ef       	ldi	r22, 0xFF	; 255
    3372:	7f e7       	ldi	r23, 0x7F	; 127
    3374:	0e 94 07 14 	call	0x280e	; 0x280e <__vsnprintf>
    3378:	1f 91       	pop	r17
    337a:	0f 91       	pop	r16
    337c:	08 95       	ret

Disassembly of section .text.__vsnprintf:

0000280e <__vsnprintf>:
    280e:	6f 92       	push	r6
    2810:	7f 92       	push	r7
    2812:	8f 92       	push	r8
    2814:	ef 92       	push	r14
    2816:	ff 92       	push	r15
    2818:	0f 93       	push	r16
    281a:	1f 93       	push	r17
    281c:	cf 93       	push	r28
    281e:	df 93       	push	r29
    2820:	cd b7       	in	r28, 0x3d	; 61
    2822:	de b7       	in	r29, 0x3e	; 62
    2824:	61 97       	sbiw	r28, 0x11	; 17
    2826:	0f b6       	in	r0, 0x3f	; 63
    2828:	f8 94       	cli
    282a:	de bf       	out	0x3e, r29	; 62
    282c:	0f be       	out	0x3f, r0	; 63
    282e:	cd bf       	out	0x3d, r28	; 61
    2830:	fe 01       	movw	r30, r28
    2832:	31 96       	adiw	r30, 0x01	; 1
    2834:	51 e1       	ldi	r21, 0x11	; 17
    2836:	df 01       	movw	r26, r30
    2838:	1d 92       	st	X+, r1
    283a:	5a 95       	dec	r21
    283c:	e9 f7       	brne	.-6      	; 0x2838 <__vsnprintf+0x2a>
    283e:	a2 e0       	ldi	r26, 0x02	; 2
    2840:	b1 e0       	ldi	r27, 0x01	; 1
    2842:	ba 83       	std	Y+2, r27	; 0x02
    2844:	a9 83       	std	Y+1, r26	; 0x01
    2846:	9c 83       	std	Y+4, r25	; 0x04
    2848:	8b 83       	std	Y+3, r24	; 0x03
    284a:	77 ff       	sbrs	r23, 7
    284c:	09 c0       	rjmp	.+18     	; 0x2860 <__vsnprintf+0x52>
    284e:	8f e4       	ldi	r24, 0x4F	; 79
    2850:	90 e0       	ldi	r25, 0x00	; 0
    2852:	90 93 03 01 	sts	0x0103, r25	; 0x800103 <__errno_val+0x1>
    2856:	80 93 02 01 	sts	0x0102, r24	; 0x800102 <__errno_val>
    285a:	8f ef       	ldi	r24, 0xFF	; 255
    285c:	9f ef       	ldi	r25, 0xFF	; 255
    285e:	19 c0       	rjmp	.+50     	; 0x2892 <__vsnprintf+0x84>
    2860:	39 01       	movw	r6, r18
    2862:	84 2e       	mov	r8, r20
    2864:	7c 01       	movw	r14, r24
    2866:	61 50       	subi	r22, 0x01	; 1
    2868:	71 09       	sbc	r23, r1
    286a:	7f 83       	std	Y+7, r23	; 0x07
    286c:	6e 83       	std	Y+6, r22	; 0x06
    286e:	98 01       	movw	r18, r16
    2870:	68 2d       	mov	r22, r8
    2872:	a3 01       	movw	r20, r6
    2874:	cf 01       	movw	r24, r30
    2876:	0e 94 db 18 	call	0x31b6	; 0x31b6 <__vfprintf>
    287a:	48 85       	ldd	r20, Y+8	; 0x08
    287c:	59 85       	ldd	r21, Y+9	; 0x09
    287e:	2e 81       	ldd	r18, Y+6	; 0x06
    2880:	3f 81       	ldd	r19, Y+7	; 0x07
    2882:	42 17       	cp	r20, r18
    2884:	53 07       	cpc	r21, r19
    2886:	08 f4       	brcc	.+2      	; 0x288a <__vsnprintf+0x7c>
    2888:	9a 01       	movw	r18, r20
    288a:	f7 01       	movw	r30, r14
    288c:	e2 0f       	add	r30, r18
    288e:	f3 1f       	adc	r31, r19
    2890:	10 82       	st	Z, r1
    2892:	61 96       	adiw	r28, 0x11	; 17
    2894:	0f b6       	in	r0, 0x3f	; 63
    2896:	f8 94       	cli
    2898:	de bf       	out	0x3e, r29	; 62
    289a:	0f be       	out	0x3f, r0	; 63
    289c:	cd bf       	out	0x3d, r28	; 61
    289e:	df 91       	pop	r29
    28a0:	cf 91       	pop	r28
    28a2:	1f 91       	pop	r17
    28a4:	0f 91       	pop	r16
    28a6:	ff 90       	pop	r15
    28a8:	ef 90       	pop	r14
    28aa:	8f 90       	pop	r8
    28ac:	7f 90       	pop	r7
    28ae:	6f 90       	pop	r6
    28b0:	08 95       	ret

Disassembly of section .text.__vfprintf:

000031b6 <__vfprintf>:
    31b6:	a2 e0       	ldi	r26, 0x02	; 2
    31b8:	b0 e0       	ldi	r27, 0x00	; 0
    31ba:	e1 ee       	ldi	r30, 0xE1	; 225
    31bc:	f8 e1       	ldi	r31, 0x18	; 24
    31be:	0c 94 b2 18 	jmp	0x3164	; 0x3164 <__prologue_saves__+0x1c>
    31c2:	8c 01       	movw	r16, r24
    31c4:	3a 83       	std	Y+2, r19	; 0x02
    31c6:	29 83       	std	Y+1, r18	; 0x01
    31c8:	9e 01       	movw	r18, r28
    31ca:	2f 5f       	subi	r18, 0xFF	; 255
    31cc:	3f 4f       	sbci	r19, 0xFF	; 255
    31ce:	0e 94 5c 02 	call	0x4b8	; 0x4b8 <__printf_core>
    31d2:	f8 01       	movw	r30, r16
    31d4:	20 81       	ld	r18, Z
    31d6:	24 ff       	sbrs	r18, 4
    31d8:	02 c0       	rjmp	.+4      	; 0x31de <__vfprintf+0x28>
    31da:	8f ef       	ldi	r24, 0xFF	; 255
    31dc:	9f ef       	ldi	r25, 0xFF	; 255
    31de:	22 96       	adiw	r28, 0x02	; 2
    31e0:	e4 e0       	ldi	r30, 0x04	; 4
    31e2:	0c 94 ce 18 	jmp	0x319c	; 0x319c <__epilogue_restores__+0x1c>

Disassembly of section .text.libgcc.div:

00003298 <__divmodhi4>:
    3298:	97 fb       	bst	r25, 7
    329a:	07 2e       	mov	r0, r23
    329c:	16 f4       	brtc	.+4      	; 0x32a2 <__divmodhi4+0xa>
    329e:	00 94       	com	r0
    32a0:	07 d0       	rcall	.+14     	; 0x32b0 <__divmodhi4_neg1>
    32a2:	77 fd       	sbrc	r23, 7
    32a4:	09 d0       	rcall	.+18     	; 0x32b8 <__divmodhi4_neg2>
    32a6:	0e 94 60 19 	call	0x32c0	; 0x32c0 <__udivmodhi4>
    32aa:	07 fc       	sbrc	r0, 7
    32ac:	05 d0       	rcall	.+10     	; 0x32b8 <__divmodhi4_neg2>
    32ae:	3e f4       	brtc	.+14     	; 0x32be <__divmodhi4_exit>

000032b0 <__divmodhi4_neg1>:
    32b0:	90 95       	com	r25
    32b2:	81 95       	neg	r24
    32b4:	9f 4f       	sbci	r25, 0xFF	; 255
    32b6:	08 95       	ret

000032b8 <__divmodhi4_neg2>:
    32b8:	70 95       	com	r23
    32ba:	61 95       	neg	r22
    32bc:	7f 4f       	sbci	r23, 0xFF	; 255

000032be <__divmodhi4_exit>:
    32be:	08 95       	ret

Disassembly of section .text.libgcc.prologue:

00003148 <__prologue_saves__>:
    3148:	2f 92       	push	r2
    314a:	3f 92       	push	r3
    314c:	4f 92       	push	r4
    314e:	5f 92       	push	r5
    3150:	6f 92       	push	r6
    3152:	7f 92       	push	r7
    3154:	8f 92       	push	r8
    3156:	9f 92       	push	r9
    3158:	af 92       	push	r10
    315a:	bf 92       	push	r11
    315c:	cf 92       	push	r12
    315e:	df 92       	push	r13
    3160:	ef 92       	push	r14
    3162:	ff 92       	push	r15
    3164:	0f 93       	push	r16
    3166:	1f 93       	push	r17
    3168:	cf 93       	push	r28
    316a:	df 93       	push	r29
    316c:	cd b7       	in	r28, 0x3d	; 61
    316e:	de b7       	in	r29, 0x3e	; 62
    3170:	ca 1b       	sub	r28, r26
    3172:	db 0b       	sbc	r29, r27
    3174:	0f b6       	in	r0, 0x3f	; 63
    3176:	f8 94       	cli
    3178:	de bf       	out	0x3e, r29	; 62
    317a:	0f be       	out	0x3f, r0	; 63
    317c:	cd bf       	out	0x3d, r28	; 61
    317e:	09 94       	ijmp

Disassembly of section .text.libgcc.prologue:

00003180 <__epilogue_restores__>:
    3180:	2a 88       	ldd	r2, Y+18	; 0x12
    3182:	39 88       	ldd	r3, Y+17	; 0x11
    3184:	48 88       	ldd	r4, Y+16	; 0x10
    3186:	5f 84       	ldd	r5, Y+15	; 0x0f
    3188:	6e 84       	ldd	r6, Y+14	; 0x0e
    318a:	7d 84       	ldd	r7, Y+13	; 0x0d
    318c:	8c 84       	ldd	r8, Y+12	; 0x0c
    318e:	9b 84       	ldd	r9, Y+11	; 0x0b
    3190:	aa 84       	ldd	r10, Y+10	; 0x0a
    3192:	b9 84       	ldd	r11, Y+9	; 0x09
    3194:	c8 84       	ldd	r12, Y+8	; 0x08
    3196:	df 80       	ldd	r13, Y+7	; 0x07
    3198:	ee 80       	ldd	r14, Y+6	; 0x06
    319a:	fd 80       	ldd	r15, Y+5	; 0x05
    319c:	0c 81       	ldd	r16, Y+4	; 0x04
    319e:	1b 81       	ldd	r17, Y+3	; 0x03
    31a0:	aa 81       	ldd	r26, Y+2	; 0x02
    31a2:	b9 81       	ldd	r27, Y+1	; 0x01
    31a4:	ce 0f       	add	r28, r30
    31a6:	d1 1d       	adc	r29, r1
    31a8:	0f b6       	in	r0, 0x3f	; 63
    31aa:	f8 94       	cli
    31ac:	de bf       	out	0x3e, r29	; 62
    31ae:	0f be       	out	0x3f, r0	; 63
    31b0:	cd bf       	out	0x3d, r28	; 61
    31b2:	ed 01       	movw	r28, r26
    31b4:	08 95       	ret

Disassembly of section .text.libgcc:

0000334c <__movmemx_qi>:
    334c:	99 27       	eor	r25, r25

0000334e <__movmemx_hi>:
    334e:	77 fd       	sbrc	r23, 7
    3350:	05 c0       	rjmp	.+10     	; 0x335c <__movmemx_hi+0xe>
    3352:	05 90       	lpm	r0, Z+
    3354:	0d 92       	st	X+, r0
    3356:	01 97       	sbiw	r24, 0x01	; 1
    3358:	e1 f7       	brne	.-8      	; 0x3352 <__movmemx_hi+0x4>
    335a:	08 95       	ret
    335c:	01 90       	ld	r0, Z+
    335e:	0d 92       	st	X+, r0
    3360:	01 97       	sbiw	r24, 0x01	; 1
    3362:	e1 f7       	brne	.-8      	; 0x335c <__movmemx_hi+0xe>
    3364:	08 95       	ret

Disassembly of section .text.libgcc:

0000337e <__cmpdi2_s8>:
    337e:	00 24       	eor	r0, r0
    3380:	a7 fd       	sbrc	r26, 7
    3382:	00 94       	com	r0
    3384:	2a 17       	cp	r18, r26
    3386:	30 05       	cpc	r19, r0
    3388:	40 05       	cpc	r20, r0
    338a:	50 05       	cpc	r21, r0
    338c:	60 05       	cpc	r22, r0
    338e:	70 05       	cpc	r23, r0
    3390:	80 05       	cpc	r24, r0
    3392:	90 05       	cpc	r25, r0
    3394:	08 95       	ret

Disassembly of section .text.libgcc.div:

000032c0 <__udivmodhi4>:
    32c0:	aa 1b       	sub	r26, r26
    32c2:	bb 1b       	sub	r27, r27
    32c4:	51 e1       	ldi	r21, 0x11	; 17
    32c6:	07 c0       	rjmp	.+14     	; 0x32d6 <__udivmodhi4_ep>

000032c8 <__udivmodhi4_loop>:
    32c8:	aa 1f       	adc	r26, r26
    32ca:	bb 1f       	adc	r27, r27
    32cc:	a6 17       	cp	r26, r22
    32ce:	b7 07       	cpc	r27, r23
    32d0:	10 f0       	brcs	.+4      	; 0x32d6 <__udivmodhi4_ep>
    32d2:	a6 1b       	sub	r26, r22
    32d4:	b7 0b       	sbc	r27, r23

000032d6 <__udivmodhi4_ep>:
    32d6:	88 1f       	adc	r24, r24
    32d8:	99 1f       	adc	r25, r25
    32da:	5a 95       	dec	r21
    32dc:	a9 f7       	brne	.-22     	; 0x32c8 <__udivmodhi4_loop>
    32de:	80 95       	com	r24
    32e0:	90 95       	com	r25
    32e2:	bc 01       	movw	r22, r24
    32e4:	cd 01       	movw	r24, r26
    32e6:	08 95       	ret

Disassembly of section .text:

000034be <__mulsf3>:
    34be:	0e 94 86 12 	call	0x250c	; 0x250c <__mulsf3x>
    34c2:	0c 94 87 19 	jmp	0x330e	; 0x330e <__fp_round>

Disassembly of section .text:

0000250c <__mulsf3x>:
    250c:	0f c0       	rjmp	.+30     	; 0x252c <__mulsf3x+0x20>
    250e:	0e 94 1d 1a 	call	0x343a	; 0x343a <__fp_pscA>
    2512:	38 f0       	brcs	.+14     	; 0x2522 <__mulsf3x+0x16>
    2514:	0e 94 24 1a 	call	0x3448	; 0x3448 <__fp_pscB>
    2518:	20 f0       	brcs	.+8      	; 0x2522 <__mulsf3x+0x16>
    251a:	95 23       	and	r25, r21
    251c:	11 f0       	breq	.+4      	; 0x2522 <__mulsf3x+0x16>
    251e:	0c 94 38 1a 	jmp	0x3470	; 0x3470 <__fp_inf>
    2522:	0c 94 63 1a 	jmp	0x34c6	; 0x34c6 <__fp_nan>
    2526:	11 24       	eor	r1, r1
    2528:	0c 94 2c 1a 	jmp	0x3458	; 0x3458 <__fp_szero>
    252c:	0e 94 cb 17 	call	0x2f96	; 0x2f96 <__fp_split3>
    2530:	70 f3       	brcs	.-36     	; 0x250e <__mulsf3x+0x2>

00002532 <__mulsf3_pse>:
    2532:	95 9f       	mul	r25, r21
    2534:	c1 f3       	breq	.-16     	; 0x2526 <__mulsf3x+0x1a>
    2536:	95 0f       	add	r25, r21
    2538:	50 e0       	ldi	r21, 0x00	; 0
    253a:	55 1f       	adc	r21, r21
    253c:	62 9f       	mul	r22, r18
    253e:	f0 01       	movw	r30, r0
    2540:	72 9f       	mul	r23, r18
    2542:	bb 27       	eor	r27, r27
    2544:	f0 0d       	add	r31, r0
    2546:	b1 1d       	adc	r27, r1
    2548:	63 9f       	mul	r22, r19
    254a:	aa 27       	eor	r26, r26
    254c:	f0 0d       	add	r31, r0
    254e:	b1 1d       	adc	r27, r1
    2550:	aa 1f       	adc	r26, r26
    2552:	64 9f       	mul	r22, r20
    2554:	66 27       	eor	r22, r22
    2556:	b0 0d       	add	r27, r0
    2558:	a1 1d       	adc	r26, r1
    255a:	66 1f       	adc	r22, r22
    255c:	82 9f       	mul	r24, r18
    255e:	22 27       	eor	r18, r18
    2560:	b0 0d       	add	r27, r0
    2562:	a1 1d       	adc	r26, r1
    2564:	62 1f       	adc	r22, r18
    2566:	73 9f       	mul	r23, r19
    2568:	b0 0d       	add	r27, r0
    256a:	a1 1d       	adc	r26, r1
    256c:	62 1f       	adc	r22, r18
    256e:	83 9f       	mul	r24, r19
    2570:	a0 0d       	add	r26, r0
    2572:	61 1d       	adc	r22, r1
    2574:	22 1f       	adc	r18, r18
    2576:	74 9f       	mul	r23, r20
    2578:	33 27       	eor	r19, r19
    257a:	a0 0d       	add	r26, r0
    257c:	61 1d       	adc	r22, r1
    257e:	23 1f       	adc	r18, r19
    2580:	84 9f       	mul	r24, r20
    2582:	60 0d       	add	r22, r0
    2584:	21 1d       	adc	r18, r1
    2586:	82 2f       	mov	r24, r18
    2588:	76 2f       	mov	r23, r22
    258a:	6a 2f       	mov	r22, r26
    258c:	11 24       	eor	r1, r1
    258e:	9f 57       	subi	r25, 0x7F	; 127
    2590:	50 40       	sbci	r21, 0x00	; 0
    2592:	9a f0       	brmi	.+38     	; 0x25ba <__mulsf3_pse+0x88>
    2594:	f1 f0       	breq	.+60     	; 0x25d2 <__mulsf3_pse+0xa0>
    2596:	88 23       	and	r24, r24
    2598:	4a f0       	brmi	.+18     	; 0x25ac <__mulsf3_pse+0x7a>
    259a:	ee 0f       	add	r30, r30
    259c:	ff 1f       	adc	r31, r31
    259e:	bb 1f       	adc	r27, r27
    25a0:	66 1f       	adc	r22, r22
    25a2:	77 1f       	adc	r23, r23
    25a4:	88 1f       	adc	r24, r24
    25a6:	91 50       	subi	r25, 0x01	; 1
    25a8:	50 40       	sbci	r21, 0x00	; 0
    25aa:	a9 f7       	brne	.-22     	; 0x2596 <__mulsf3_pse+0x64>
    25ac:	9e 3f       	cpi	r25, 0xFE	; 254
    25ae:	51 05       	cpc	r21, r1
    25b0:	80 f0       	brcs	.+32     	; 0x25d2 <__mulsf3_pse+0xa0>
    25b2:	0c 94 38 1a 	jmp	0x3470	; 0x3470 <__fp_inf>
    25b6:	0c 94 2c 1a 	jmp	0x3458	; 0x3458 <__fp_szero>
    25ba:	5f 3f       	cpi	r21, 0xFF	; 255
    25bc:	e4 f3       	brlt	.-8      	; 0x25b6 <__mulsf3_pse+0x84>
    25be:	98 3e       	cpi	r25, 0xE8	; 232
    25c0:	d4 f3       	brlt	.-12     	; 0x25b6 <__mulsf3_pse+0x84>
    25c2:	86 95       	lsr	r24
    25c4:	77 95       	ror	r23
    25c6:	67 95       	ror	r22
    25c8:	b7 95       	ror	r27
    25ca:	f7 95       	ror	r31
    25cc:	e7 95       	ror	r30
    25ce:	9f 5f       	subi	r25, 0xFF	; 255
    25d0:	c1 f7       	brne	.-16     	; 0x25c2 <__mulsf3_pse+0x90>
    25d2:	fe 2b       	or	r31, r30
    25d4:	88 0f       	add	r24, r24
    25d6:	91 1d       	adc	r25, r1
    25d8:	96 95       	lsr	r25
    25da:	87 95       	ror	r24
    25dc:	97 f9       	bld	r25, 7
    25de:	08 95       	ret

Disassembly of section .text.floorf:

00001e18 <floorf>:
    1e18:	4f 92       	push	r4
    1e1a:	5f 92       	push	r5
    1e1c:	6f 92       	push	r6
    1e1e:	7f 92       	push	r7
    1e20:	8f 92       	push	r8
    1e22:	9f 92       	push	r9
    1e24:	af 92       	push	r10
    1e26:	bf 92       	push	r11
    1e28:	cf 92       	push	r12
    1e2a:	df 92       	push	r13
    1e2c:	ef 92       	push	r14
    1e2e:	ff 92       	push	r15
    1e30:	cf 93       	push	r28
    1e32:	df 93       	push	r29
    1e34:	cd b7       	in	r28, 0x3d	; 61
    1e36:	de b7       	in	r29, 0x3e	; 62
    1e38:	28 97       	sbiw	r28, 0x08	; 8
    1e3a:	0f b6       	in	r0, 0x3f	; 63
    1e3c:	f8 94       	cli
    1e3e:	de bf       	out	0x3e, r29	; 62
    1e40:	0f be       	out	0x3f, r0	; 63
    1e42:	cd bf       	out	0x3d, r28	; 61
    1e44:	6b 01       	movw	r12, r22
    1e46:	7c 01       	movw	r14, r24
    1e48:	dc 01       	movw	r26, r24
    1e4a:	cb 01       	movw	r24, r22
    1e4c:	47 e1       	ldi	r20, 0x17	; 23
    1e4e:	b6 95       	lsr	r27
    1e50:	a7 95       	ror	r26
    1e52:	97 95       	ror	r25
    1e54:	87 95       	ror	r24
    1e56:	4a 95       	dec	r20
    1e58:	d1 f7       	brne	.-12     	; 0x1e4e <floorf+0x36>
    1e5a:	99 27       	eor	r25, r25
    1e5c:	8f 57       	subi	r24, 0x7F	; 127
    1e5e:	91 09       	sbc	r25, r1
    1e60:	87 31       	cpi	r24, 0x17	; 23
    1e62:	91 05       	cpc	r25, r1
    1e64:	9c f5       	brge	.+102    	; 0x1ecc <floorf+0xb4>
    1e66:	97 fd       	sbrc	r25, 7
    1e68:	36 c0       	rjmp	.+108    	; 0x1ed6 <floorf+0xbe>
    1e6a:	88 24       	eor	r8, r8
    1e6c:	8a 94       	dec	r8
    1e6e:	98 2c       	mov	r9, r8
    1e70:	3f e7       	ldi	r19, 0x7F	; 127
    1e72:	a3 2e       	mov	r10, r19
    1e74:	b1 2c       	mov	r11, r1
    1e76:	04 c0       	rjmp	.+8      	; 0x1e80 <floorf+0x68>
    1e78:	b5 94       	asr	r11
    1e7a:	a7 94       	ror	r10
    1e7c:	97 94       	ror	r9
    1e7e:	87 94       	ror	r8
    1e80:	8a 95       	dec	r24
    1e82:	d2 f7       	brpl	.-12     	; 0x1e78 <floorf+0x60>
    1e84:	d5 01       	movw	r26, r10
    1e86:	c4 01       	movw	r24, r8
    1e88:	8c 21       	and	r24, r12
    1e8a:	9d 21       	and	r25, r13
    1e8c:	ae 21       	and	r26, r14
    1e8e:	bf 21       	and	r27, r15
    1e90:	89 2b       	or	r24, r25
    1e92:	8a 2b       	or	r24, r26
    1e94:	8b 2b       	or	r24, r27
    1e96:	d1 f0       	breq	.+52     	; 0x1ecc <floorf+0xb4>
    1e98:	20 e0       	ldi	r18, 0x00	; 0
    1e9a:	30 e0       	ldi	r19, 0x00	; 0
    1e9c:	40 e8       	ldi	r20, 0x80	; 128
    1e9e:	5b e7       	ldi	r21, 0x7B	; 123
    1ea0:	c7 01       	movw	r24, r14
    1ea2:	b6 01       	movw	r22, r12
    1ea4:	0e 94 10 1a 	call	0x3420	; 0x3420 <__addsf3>
    1ea8:	6d 83       	std	Y+5, r22	; 0x05
    1eaa:	7e 83       	std	Y+6, r23	; 0x06
    1eac:	8f 83       	std	Y+7, r24	; 0x07
    1eae:	98 87       	std	Y+8, r25	; 0x08
    1eb0:	f7 fe       	sbrs	r15, 7
    1eb2:	04 c0       	rjmp	.+8      	; 0x1ebc <floorf+0xa4>
    1eb4:	c8 0c       	add	r12, r8
    1eb6:	d9 1c       	adc	r13, r9
    1eb8:	ea 1c       	adc	r14, r10
    1eba:	fb 1c       	adc	r15, r11
    1ebc:	80 94       	com	r8
    1ebe:	90 94       	com	r9
    1ec0:	a0 94       	com	r10
    1ec2:	b0 94       	com	r11
    1ec4:	c8 20       	and	r12, r8
    1ec6:	d9 20       	and	r13, r9
    1ec8:	ea 20       	and	r14, r10
    1eca:	fb 20       	and	r15, r11
    1ecc:	5c 2d       	mov	r21, r12
    1ece:	4d 2d       	mov	r20, r13
    1ed0:	3e 2d       	mov	r19, r14
    1ed2:	2f 2d       	mov	r18, r15
    1ed4:	21 c0       	rjmp	.+66     	; 0x1f18 <floorf+0x100>
    1ed6:	20 e0       	ldi	r18, 0x00	; 0
    1ed8:	30 e0       	ldi	r19, 0x00	; 0
    1eda:	40 e8       	ldi	r20, 0x80	; 128
    1edc:	5b e7       	ldi	r21, 0x7B	; 123
    1ede:	c7 01       	movw	r24, r14
    1ee0:	b6 01       	movw	r22, r12
    1ee2:	0e 94 10 1a 	call	0x3420	; 0x3420 <__addsf3>
    1ee6:	69 83       	std	Y+1, r22	; 0x01
    1ee8:	7a 83       	std	Y+2, r23	; 0x02
    1eea:	8b 83       	std	Y+3, r24	; 0x03
    1eec:	9c 83       	std	Y+4, r25	; 0x04
    1eee:	f7 fe       	sbrs	r15, 7
    1ef0:	0f c0       	rjmp	.+30     	; 0x1f10 <floorf+0xf8>
    1ef2:	d7 01       	movw	r26, r14
    1ef4:	c6 01       	movw	r24, r12
    1ef6:	88 0f       	add	r24, r24
    1ef8:	99 1f       	adc	r25, r25
    1efa:	aa 1f       	adc	r26, r26
    1efc:	bb 1f       	adc	r27, r27
    1efe:	89 2b       	or	r24, r25
    1f00:	8a 2b       	or	r24, r26
    1f02:	8b 2b       	or	r24, r27
    1f04:	19 f3       	breq	.-58     	; 0x1ecc <floorf+0xb4>
    1f06:	50 e0       	ldi	r21, 0x00	; 0
    1f08:	40 e0       	ldi	r20, 0x00	; 0
    1f0a:	30 e8       	ldi	r19, 0x80	; 128
    1f0c:	2f eb       	ldi	r18, 0xBF	; 191
    1f0e:	04 c0       	rjmp	.+8      	; 0x1f18 <floorf+0x100>
    1f10:	50 e0       	ldi	r21, 0x00	; 0
    1f12:	40 e0       	ldi	r20, 0x00	; 0
    1f14:	30 e0       	ldi	r19, 0x00	; 0
    1f16:	20 e0       	ldi	r18, 0x00	; 0
    1f18:	65 2f       	mov	r22, r21
    1f1a:	74 2f       	mov	r23, r20
    1f1c:	83 2f       	mov	r24, r19
    1f1e:	92 2f       	mov	r25, r18
    1f20:	28 96       	adiw	r28, 0x08	; 8
    1f22:	0f b6       	in	r0, 0x3f	; 63
    1f24:	f8 94       	cli
    1f26:	de bf       	out	0x3e, r29	; 62
    1f28:	0f be       	out	0x3f, r0	; 63
    1f2a:	cd bf       	out	0x3d, r28	; 61
    1f2c:	df 91       	pop	r29
    1f2e:	cf 91       	pop	r28
    1f30:	ff 90       	pop	r15
    1f32:	ef 90       	pop	r14
    1f34:	df 90       	pop	r13
    1f36:	cf 90       	pop	r12
    1f38:	bf 90       	pop	r11
    1f3a:	af 90       	pop	r10
    1f3c:	9f 90       	pop	r9
    1f3e:	8f 90       	pop	r8
    1f40:	7f 90       	pop	r7
    1f42:	6f 90       	pop	r6
    1f44:	5f 90       	pop	r5
    1f46:	4f 90       	pop	r4
    1f48:	08 95       	ret

Disassembly of section .text.fmaf:

00001cdc <fmaf>:
    1cdc:	a5 e1       	ldi	r26, 0x15	; 21
    1cde:	b0 e0       	ldi	r27, 0x00	; 0
    1ce0:	e4 e7       	ldi	r30, 0x74	; 116
    1ce2:	fe e0       	ldi	r31, 0x0E	; 14
    1ce4:	0c 94 a4 18 	jmp	0x3148	; 0x3148 <__prologue_saves__>
    1ce8:	47 01       	movw	r8, r14
    1cea:	58 01       	movw	r10, r16
    1cec:	0e 94 5f 1a 	call	0x34be	; 0x34be <__mulsf3>
    1cf0:	2b 01       	movw	r4, r22
    1cf2:	3c 01       	movw	r6, r24
    1cf4:	a8 01       	movw	r20, r16
    1cf6:	97 01       	movw	r18, r14
    1cf8:	0e 94 10 1a 	call	0x3420	; 0x3420 <__addsf3>
    1cfc:	16 2f       	mov	r17, r22
    1cfe:	c7 2e       	mov	r12, r23
    1d00:	d8 2e       	mov	r13, r24
    1d02:	f9 2e       	mov	r15, r25
    1d04:	86 2f       	mov	r24, r22
    1d06:	9c 2d       	mov	r25, r12
    1d08:	ad 2d       	mov	r26, r13
    1d0a:	bf 2d       	mov	r27, r15
    1d0c:	89 83       	std	Y+1, r24	; 0x01
    1d0e:	9a 83       	std	Y+2, r25	; 0x02
    1d10:	ab 83       	std	Y+3, r26	; 0x03
    1d12:	bc 83       	std	Y+4, r27	; 0x04
    1d14:	aa 81       	ldd	r26, Y+2	; 0x02
    1d16:	fb 81       	ldd	r31, Y+3	; 0x03
    1d18:	ec 81       	ldd	r30, Y+4	; 0x04
    1d1a:	ed 80       	ldd	r14, Y+5	; 0x05
    1d1c:	3e 80       	ldd	r3, Y+6	; 0x06
    1d1e:	2f 80       	ldd	r2, Y+7	; 0x07
    1d20:	08 85       	ldd	r16, Y+8	; 0x08
    1d22:	0d 8b       	std	Y+21, r16	; 0x15
    1d24:	5e 2f       	mov	r21, r30
    1d26:	5f 71       	andi	r21, 0x1F	; 31
    1d28:	21 2f       	mov	r18, r17
    1d2a:	3a 2f       	mov	r19, r26
    1d2c:	4f 2f       	mov	r20, r31
    1d2e:	60 e0       	ldi	r22, 0x00	; 0
    1d30:	70 e0       	ldi	r23, 0x00	; 0
    1d32:	80 e0       	ldi	r24, 0x00	; 0
    1d34:	90 e0       	ldi	r25, 0x00	; 0
    1d36:	21 15       	cp	r18, r1
    1d38:	31 05       	cpc	r19, r1
    1d3a:	41 05       	cpc	r20, r1
    1d3c:	00 e1       	ldi	r16, 0x10	; 16
    1d3e:	50 07       	cpc	r21, r16
    1d40:	61 05       	cpc	r22, r1
    1d42:	71 05       	cpc	r23, r1
    1d44:	81 05       	cpc	r24, r1
    1d46:	91 05       	cpc	r25, r1
    1d48:	09 f0       	breq	.+2      	; 0x1d4c <fmaf+0x70>
    1d4a:	5e c0       	rjmp	.+188    	; 0x1e08 <fmaf+0x12c>
    1d4c:	5e 2f       	mov	r21, r30
    1d4e:	6e 2d       	mov	r22, r14
    1d50:	73 2d       	mov	r23, r3
    1d52:	82 2d       	mov	r24, r2
    1d54:	9d 89       	ldd	r25, Y+21	; 0x15
    1d56:	04 e3       	ldi	r16, 0x34	; 52
    1d58:	0e 94 6c 18 	call	0x30d8	; 0x30d8 <__lshrdi3>
    1d5c:	2d 87       	std	Y+13, r18	; 0x0d
    1d5e:	3e 87       	std	Y+14, r19	; 0x0e
    1d60:	4f 87       	std	Y+15, r20	; 0x0f
    1d62:	58 8b       	std	Y+16, r21	; 0x10
    1d64:	69 8b       	std	Y+17, r22	; 0x11
    1d66:	7a 8b       	std	Y+18, r23	; 0x12
    1d68:	8b 8b       	std	Y+19, r24	; 0x13
    1d6a:	9c 8b       	std	Y+20, r25	; 0x14
    1d6c:	8d 85       	ldd	r24, Y+13	; 0x0d
    1d6e:	9e 85       	ldd	r25, Y+14	; 0x0e
    1d70:	97 70       	andi	r25, 0x07	; 7
    1d72:	8f 3f       	cpi	r24, 0xFF	; 255
    1d74:	97 40       	sbci	r25, 0x07	; 7
    1d76:	09 f4       	brne	.+2      	; 0x1d7a <fmaf+0x9e>
    1d78:	47 c0       	rjmp	.+142    	; 0x1e08 <fmaf+0x12c>
    1d7a:	a3 01       	movw	r20, r6
    1d7c:	92 01       	movw	r18, r4
    1d7e:	61 2f       	mov	r22, r17
    1d80:	7c 2d       	mov	r23, r12
    1d82:	8d 2d       	mov	r24, r13
    1d84:	9f 2d       	mov	r25, r15
    1d86:	0e 94 0f 1a 	call	0x341e	; 0x341e <__subsf3>
    1d8a:	9b 01       	movw	r18, r22
    1d8c:	ac 01       	movw	r20, r24
    1d8e:	c5 01       	movw	r24, r10
    1d90:	b4 01       	movw	r22, r8
    1d92:	0e 94 49 1a 	call	0x3492	; 0x3492 <__cmpsf2>
    1d96:	88 23       	and	r24, r24
    1d98:	b9 f1       	breq	.+110    	; 0x1e08 <fmaf+0x12c>
    1d9a:	49 86       	std	Y+9, r4	; 0x09
    1d9c:	5a 86       	std	Y+10, r5	; 0x0a
    1d9e:	6b 86       	std	Y+11, r6	; 0x0b
    1da0:	7c 86       	std	Y+12, r7	; 0x0c
    1da2:	29 85       	ldd	r18, Y+9	; 0x09
    1da4:	3a 85       	ldd	r19, Y+10	; 0x0a
    1da6:	4b 85       	ldd	r20, Y+11	; 0x0b
    1da8:	5c 85       	ldd	r21, Y+12	; 0x0c
    1daa:	c5 01       	movw	r24, r10
    1dac:	b4 01       	movw	r22, r8
    1dae:	0e 94 10 1a 	call	0x3420	; 0x3420 <__addsf3>
    1db2:	b6 2e       	mov	r11, r22
    1db4:	87 2e       	mov	r8, r23
    1db6:	98 2e       	mov	r9, r24
    1db8:	a9 2e       	mov	r10, r25
    1dba:	26 2f       	mov	r18, r22
    1dbc:	37 2f       	mov	r19, r23
    1dbe:	48 2f       	mov	r20, r24
    1dc0:	59 2f       	mov	r21, r25
    1dc2:	61 2f       	mov	r22, r17
    1dc4:	7c 2d       	mov	r23, r12
    1dc6:	8d 2d       	mov	r24, r13
    1dc8:	9f 2d       	mov	r25, r15
    1dca:	0e 94 49 1a 	call	0x3492	; 0x3492 <__cmpsf2>
    1dce:	81 11       	cpse	r24, r1
    1dd0:	18 c0       	rjmp	.+48     	; 0x1e02 <fmaf+0x126>
    1dd2:	2b 2d       	mov	r18, r11
    1dd4:	8b 2d       	mov	r24, r11
    1dd6:	98 2d       	mov	r25, r8
    1dd8:	a9 2d       	mov	r26, r9
    1dda:	ba 2d       	mov	r27, r10
    1ddc:	89 83       	std	Y+1, r24	; 0x01
    1dde:	9a 83       	std	Y+2, r25	; 0x02
    1de0:	ab 83       	std	Y+3, r26	; 0x03
    1de2:	bc 83       	std	Y+4, r27	; 0x04
    1de4:	3a 81       	ldd	r19, Y+2	; 0x02
    1de6:	4b 81       	ldd	r20, Y+3	; 0x03
    1de8:	5c 81       	ldd	r21, Y+4	; 0x04
    1dea:	6e 2d       	mov	r22, r14
    1dec:	73 2d       	mov	r23, r3
    1dee:	82 2d       	mov	r24, r2
    1df0:	9d 89       	ldd	r25, Y+21	; 0x15
    1df2:	a1 e0       	ldi	r26, 0x01	; 1
    1df4:	0e 94 cb 19 	call	0x3396	; 0x3396 <__adddi3_s8>
    1df8:	12 2f       	mov	r17, r18
    1dfa:	c3 2e       	mov	r12, r19
    1dfc:	d4 2e       	mov	r13, r20
    1dfe:	f5 2e       	mov	r15, r21
    1e00:	03 c0       	rjmp	.+6      	; 0x1e08 <fmaf+0x12c>
    1e02:	1b 2d       	mov	r17, r11
    1e04:	64 01       	movw	r12, r8
    1e06:	fa 2c       	mov	r15, r10
    1e08:	61 2f       	mov	r22, r17
    1e0a:	7c 2d       	mov	r23, r12
    1e0c:	8d 2d       	mov	r24, r13
    1e0e:	9f 2d       	mov	r25, r15
    1e10:	65 96       	adiw	r28, 0x15	; 21
    1e12:	e2 e1       	ldi	r30, 0x12	; 18
    1e14:	0c 94 c0 18 	jmp	0x3180	; 0x3180 <__epilogue_restores__>

Disassembly of section .text.libgcc.builtins:

000030d4 <__ashrdi3>:
    30d4:	97 fb       	bst	r25, 7
    30d6:	10 f8       	bld	r1, 0

000030d8 <__lshrdi3>:
    30d8:	16 94       	lsr	r1
    30da:	00 08       	sbc	r0, r0
    30dc:	0f 93       	push	r16
    30de:	08 30       	cpi	r16, 0x08	; 8
    30e0:	98 f0       	brcs	.+38     	; 0x3108 <__lshrdi3+0x30>
    30e2:	08 50       	subi	r16, 0x08	; 8
    30e4:	23 2f       	mov	r18, r19
    30e6:	34 2f       	mov	r19, r20
    30e8:	45 2f       	mov	r20, r21
    30ea:	56 2f       	mov	r21, r22
    30ec:	67 2f       	mov	r22, r23
    30ee:	78 2f       	mov	r23, r24
    30f0:	89 2f       	mov	r24, r25
    30f2:	90 2d       	mov	r25, r0
    30f4:	f4 cf       	rjmp	.-24     	; 0x30de <__lshrdi3+0x6>
    30f6:	05 94       	asr	r0
    30f8:	97 95       	ror	r25
    30fa:	87 95       	ror	r24
    30fc:	77 95       	ror	r23
    30fe:	67 95       	ror	r22
    3100:	57 95       	ror	r21
    3102:	47 95       	ror	r20
    3104:	37 95       	ror	r19
    3106:	27 95       	ror	r18
    3108:	0a 95       	dec	r16
    310a:	aa f7       	brpl	.-22     	; 0x30f6 <__lshrdi3+0x1e>
    310c:	0f 91       	pop	r16
    310e:	08 95       	ret

Disassembly of section .text.libgcc:

00003396 <__adddi3_s8>:
    3396:	00 24       	eor	r0, r0
    3398:	a7 fd       	sbrc	r26, 7
    339a:	00 94       	com	r0
    339c:	2a 0f       	add	r18, r26
    339e:	30 1d       	adc	r19, r0
    33a0:	40 1d       	adc	r20, r0
    33a2:	50 1d       	adc	r21, r0
    33a4:	60 1d       	adc	r22, r0
    33a6:	70 1d       	adc	r23, r0
    33a8:	80 1d       	adc	r24, r0
    33aa:	90 1d       	adc	r25, r0
    33ac:	08 95       	ret
